ARM GAS  C:\Users\shensley\AppData\Local\Temp\ccR8fsOJ.s 			page 1


   1              		.cpu cortex-m7
   2              		.eabi_attribute 28, 1
   3              		.eabi_attribute 20, 1
   4              		.eabi_attribute 21, 1
   5              		.eabi_attribute 23, 3
   6              		.eabi_attribute 24, 1
   7              		.eabi_attribute 25, 1
   8              		.eabi_attribute 26, 1
   9              		.eabi_attribute 30, 2
  10              		.eabi_attribute 34, 1
  11              		.eabi_attribute 18, 4
  12              		.file	"main.c"
  13              		.text
  14              		.section	.text.callback,"ax",%progbits
  15              		.align	1
  16              		.p2align 2,,3
  17              		.arch armv7e-m
  18              		.syntax unified
  19              		.thumb
  20              		.thumb_func
  21              		.fpu fpv5-d16
  23              	callback:
  24              		@ args = 0, pretend = 0, frame = 0
  25              		@ frame_needed = 0, uses_anonymous_args = 0
  26 0000 08B5     		push	{r3, lr}
  27 0002 1148     		ldr	r0, .L14
  28 0004 FFF7FEFF 		bl	dsy_encoder_debounce
  29 0008 0F48     		ldr	r0, .L14
  30 000a FFF7FEFF 		bl	dsy_encoder_inc
  31 000e 0028     		cmp	r0, #0
  32 0010 11DD     		ble	.L2
  33 0012 0E4A     		ldr	r2, .L14+4
  34 0014 1378     		ldrb	r3, [r2]	@ zero_extendqisi2
  35 0016 0133     		adds	r3, r3, #1
  36 0018 DBB2     		uxtb	r3, r3
  37 001a 052B     		cmp	r3, #5
  38 001c 08D8     		bhi	.L3
  39              	.L12:
  40 001e 1370     		strb	r3, [r2]
  41              	.L4:
  42 0020 0948     		ldr	r0, .L14
  43 0022 FFF7FEFF 		bl	dsy_encoder_rising_edge
  44 0026 10B1     		cbz	r0, .L1
  45 0028 084B     		ldr	r3, .L14+4
  46 002a 0022     		movs	r2, #0
  47 002c 1A70     		strb	r2, [r3]
  48              	.L1:
  49 002e 08BD     		pop	{r3, pc}
  50              	.L3:
  51 0030 0023     		movs	r3, #0
  52 0032 1370     		strb	r3, [r2]
  53 0034 F4E7     		b	.L4
  54              	.L2:
  55 0036 F3D0     		beq	.L4
  56 0038 044A     		ldr	r2, .L14+4
  57 003a 1378     		ldrb	r3, [r2]	@ zero_extendqisi2
  58 003c 13B9     		cbnz	r3, .L6
ARM GAS  C:\Users\shensley\AppData\Local\Temp\ccR8fsOJ.s 			page 2


  59 003e 0523     		movs	r3, #5
  60 0040 1370     		strb	r3, [r2]
  61 0042 EDE7     		b	.L4
  62              	.L6:
  63 0044 013B     		subs	r3, r3, #1
  64 0046 EAE7     		b	.L12
  65              	.L15:
  66              		.align	2
  67              	.L14:
  68 0048 E4000000 		.word	.LANCHOR0+228
  69 004c 00000000 		.word	.LANCHOR1
  71              		.section	.text.daisy_seed_init,"ax",%progbits
  72              		.align	1
  73              		.p2align 2,,3
  74              		.global	daisy_seed_init
  75              		.syntax unified
  76              		.thumb
  77              		.thumb_func
  78              		.fpu fpv5-d16
  80              	daisy_seed_init:
  81              		@ args = 0, pretend = 0, frame = 0
  82              		@ frame_needed = 0, uses_anonymous_args = 0
  83 0000 2DE9F047 		push	{r4, r5, r6, r7, r8, r9, r10, lr}
  84 0004 0446     		mov	r4, r0
  85 0006 4FF00A08 		mov	r8, #10
  86 000a 0023     		movs	r3, #0
  87 000c 0122     		movs	r2, #1
  88 000e 0521     		movs	r1, #5
  89 0010 0420     		movs	r0, #4
  90 0012 4FF0090E 		mov	lr, #9
  91 0016 0225     		movs	r5, #2
  92 0018 0626     		movs	r6, #6
  93 001a 4FF0030C 		mov	ip, #3
  94 001e 0727     		movs	r7, #7
  95 0020 4FF00809 		mov	r9, #8
  96 0024 84F80E80 		strb	r8, [r4, #14]
  97 0028 4FF00E0A 		mov	r10, #14
  98 002c 4FF00B08 		mov	r8, #11
  99 0030 2271     		strb	r2, [r4, #4]
 100 0032 A274     		strb	r2, [r4, #18]
 101 0034 6171     		strb	r1, [r4, #5]
 102 0036 E171     		strb	r1, [r4, #7]
 103 0038 6172     		strb	r1, [r4, #9]
 104 003a E172     		strb	r1, [r4, #11]
 105 003c 6173     		strb	r1, [r4, #13]
 106 003e A170     		strb	r1, [r4, #2]
 107 0040 E177     		strb	r1, [r4, #31]
 108 0042 E370     		strb	r3, [r4, #3]
 109 0044 2370     		strb	r3, [r4]
 110 0046 6374     		strb	r3, [r4, #17]
 111 0048 2375     		strb	r3, [r4, #20]
 112 004a A375     		strb	r3, [r4, #22]
 113 004c 84F808E0 		strb	lr, [r4, #8]
 114 0050 A076     		strb	r0, [r4, #26]
 115 0052 2077     		strb	r0, [r4, #28]
 116 0054 6077     		strb	r0, [r4, #29]
 117 0056 A077     		strb	r0, [r4, #30]
ARM GAS  C:\Users\shensley\AppData\Local\Temp\ccR8fsOJ.s 			page 3


 118 0058 84F82000 		strb	r0, [r4, #32]
 119 005c 84F82200 		strb	r0, [r4, #34]
 120 0060 A772     		strb	r7, [r4, #10]
 121 0062 6770     		strb	r7, [r4, #1]
 122 0064 84F80690 		strb	r9, [r4, #6]
 123 0068 2673     		strb	r6, [r4, #12]
 124 006a E673     		strb	r6, [r4, #15]
 125 006c 2674     		strb	r6, [r4, #16]
 126 006e 84F82160 		strb	r6, [r4, #33]
 127 0072 2576     		strb	r5, [r4, #24]
 128 0074 E576     		strb	r5, [r4, #27]
 129 0076 84F823C0 		strb	ip, [r4, #35]
 130 007a E274     		strb	r2, [r4, #19]
 131 007c E275     		strb	r2, [r4, #23]
 132 007e 84F82520 		strb	r2, [r4, #37]
 133 0082 84F83320 		strb	r2, [r4, #51]
 134 0086 84F82F20 		strb	r2, [r4, #47]
 135 008a 84F83120 		strb	r2, [r4, #49]
 136 008e 84F83420 		strb	r2, [r4, #52]
 137 0092 84F83920 		strb	r2, [r4, #57]
 138 0096 84F83720 		strb	r2, [r4, #55]
 139 009a 84F83D10 		strb	r1, [r4, #61]
 140 009e 84F83E20 		strb	r2, [r4, #62]
 141 00a2 84F83F20 		strb	r2, [r4, #63]
 142 00a6 6375     		strb	r3, [r4, #21]
 143 00a8 84F82430 		strb	r3, [r4, #36]
 144 00ac 84F827E0 		strb	lr, [r4, #39]
 145 00b0 84F82830 		strb	r3, [r4, #40]
 146 00b4 84F82AC0 		strb	ip, [r4, #42]
 147 00b8 84F82C30 		strb	r3, [r4, #44]
 148 00bc 84F82D30 		strb	r3, [r4, #45]
 149 00c0 84F82E30 		strb	r3, [r4, #46]
 150 00c4 84F832E0 		strb	lr, [r4, #50]
 151 00c8 84F83A30 		strb	r3, [r4, #58]
 152 00cc 84F84030 		strb	r3, [r4, #64]
 153 00d0 84F83600 		strb	r0, [r4, #54]
 154 00d4 6576     		strb	r5, [r4, #25]
 155 00d6 84F82660 		strb	r6, [r4, #38]
 156 00da 84F82950 		strb	r5, [r4, #41]
 157 00de 84F83090 		strb	r9, [r4, #48]
 158 00e2 84F83570 		strb	r7, [r4, #53]
 159 00e6 84F83B60 		strb	r6, [r4, #59]
 160 00ea 84F83C50 		strb	r5, [r4, #60]
 161 00ee 84F82B80 		strb	r8, [r4, #43]
 162 00f2 84F83880 		strb	r8, [r4, #56]
 163 00f6 84F84520 		strb	r2, [r4, #69]
 164 00fa 84F84B20 		strb	r2, [r4, #75]
 165 00fe 84F84F10 		strb	r1, [r4, #79]
 166 0102 84F8AA20 		strb	r2, [r4, #170]
 167 0106 84F8AE10 		strb	r1, [r4, #174]
 168 010a 84F8B120 		strb	r2, [r4, #177]
 169 010e 84F8B520 		strb	r2, [r4, #181]
 170 0112 84F84330 		strb	r3, [r4, #67]
 171 0116 84F84630 		strb	r3, [r4, #70]
 172 011a 84F847C0 		strb	ip, [r4, #71]
 173 011e 84F84830 		strb	r3, [r4, #72]
 174 0122 84F84930 		strb	r3, [r4, #73]
ARM GAS  C:\Users\shensley\AppData\Local\Temp\ccR8fsOJ.s 			page 4


 175 0126 84F84A30 		strb	r3, [r4, #74]
 176 012a 84F84C30 		strb	r3, [r4, #76]
 177 012e 84F84E30 		strb	r3, [r4, #78]
 178 0132 84F8A930 		strb	r3, [r4, #169]
 179 0136 84F8AB30 		strb	r3, [r4, #171]
 180 013a 84F8AD30 		strb	r3, [r4, #173]
 181 013e 84F84D00 		strb	r0, [r4, #77]
 182 0142 84F8AC00 		strb	r0, [r4, #172]
 183 0146 84F84170 		strb	r7, [r4, #65]
 184 014a 84F84250 		strb	r5, [r4, #66]
 185 014e 84F84450 		strb	r5, [r4, #68]
 186 0152 84F8AF50 		strb	r5, [r4, #175]
 187 0156 84F8B070 		strb	r7, [r4, #176]
 188 015a 84F8B360 		strb	r6, [r4, #179]
 189 015e 84F8B4A0 		strb	r10, [r4, #180]
 190 0162 FFF7FEFF 		bl	dsy_system_init
 191 0166 2046     		mov	r0, r4
 192 0168 FFF7FEFF 		bl	dsy_sdram_init
 193 016c E01C     		adds	r0, r4, #3
 194 016e FFF7FEFF 		bl	dsy_qspi_init
 195 0172 04F1AF00 		add	r0, r4, #175
 196 0176 FFF7FEFF 		bl	dsy_gpio_init
 197 017a 04F1B300 		add	r0, r4, #179
 198 017e FFF7FEFF 		bl	dsy_gpio_init
 199 0182 04F12E02 		add	r2, r4, #46
 200 0186 04F13401 		add	r1, r4, #52
 201 018a 04F11100 		add	r0, r4, #17
 202 018e BDE8F047 		pop	{r4, r5, r6, r7, r8, r9, r10, lr}
 203 0192 FFF7FEBF 		b	dsy_audio_init
 205 0196 00BF     		.section	.text.startup.main,"ax",%progbits
 206              		.align	1
 207              		.p2align 2,,3
 208              		.global	main
 209              		.syntax unified
 210              		.thumb
 211              		.thumb_func
 212              		.fpu fpv5-d16
 214              	main:
 215              		@ args = 0, pretend = 0, frame = 16
 216              		@ frame_needed = 0, uses_anonymous_args = 0
 217 0000 2DE9F04F 		push	{r4, r5, r6, r7, r8, r9, r10, fp, lr}
 218 0004 3D4C     		ldr	r4, .L28
 219 0006 85B0     		sub	sp, sp, #20
 220 0008 3D4A     		ldr	r2, .L28+4
 221 000a 4FF48031 		mov	r1, #65536
 222 000e 0026     		movs	r6, #0
 223 0010 40F20453 		movw	r3, #1284
 224 0014 2046     		mov	r0, r4
 225 0016 4FF00108 		mov	r8, #1
 226 001a 0292     		str	r2, [sp, #8]
 227 001c 40F2011B 		movw	fp, #257
 228 0020 0091     		str	r1, [sp]
 229 0022 2746     		mov	r7, r4
 230 0024 ADF80460 		strh	r6, [sp, #4]	@ movhi
 231 0028 C146     		mov	r9, r8
 232 002a ADF80C30 		strh	r3, [sp, #12]	@ movhi
 233 002e FFF7FEFF 		bl	daisy_seed_init
ARM GAS  C:\Users\shensley\AppData\Local\Temp\ccR8fsOJ.s 			page 5


 234 0032 4FF40073 		mov	r3, #512
 235 0036 04F1B700 		add	r0, r4, #183
 236 003a 84F8B780 		strb	r8, [r4, #183]
 237 003e 2546     		mov	r5, r4
 238 0040 A4F8BE30 		strh	r3, [r4, #190]	@ movhi
 239 0044 04F1180A 		add	r10, r4, #24
 240 0048 A4F8B8B0 		strh	fp, [r4, #184]	@ movhi
 241 004c FFF7FEFF 		bl	dsy_switch_init
 242 0050 40F60613 		movw	r3, #2310
 243 0054 84F8C180 		strb	r8, [r4, #193]
 244 0058 04F1C100 		add	r0, r4, #193
 245 005c A4F8C830 		strh	r3, [r4, #200]	@ movhi
 246 0060 E846     		mov	r8, sp
 247 0062 A4F8C2B0 		strh	fp, [r4, #194]	@ movhi
 248 0066 FFF7FEFF 		bl	dsy_switch_init
 249 006a 3346     		mov	r3, r6
 250 006c 0622     		movs	r2, #6
 251 006e 02AE     		add	r6, sp, #8
 252 0070 1C46     		mov	r4, r3
 253 0072 03E0     		b	.L20
 254              	.L27:
 255 0074 18F8013F 		ldrb	r3, [r8, #1]!	@ zero_extendqisi2
 256 0078 16F8012F 		ldrb	r2, [r6, #1]!	@ zero_extendqisi2
 257              	.L20:
 258 007c 85F8CB30 		strb	r3, [r5, #203]
 259 0080 05F1CB00 		add	r0, r5, #203
 260 0084 85F8CC20 		strb	r2, [r5, #204]
 261 0088 0435     		adds	r5, r5, #4
 262 008a 85F8C990 		strb	r9, [r5, #201]
 263 008e 85F8CA40 		strb	r4, [r5, #202]
 264 0092 FFF7FEFF 		bl	dsy_gpio_init
 265 0096 AA45     		cmp	r10, r5
 266 0098 ECD1     		bne	.L27
 267 009a 40F60332 		movw	r2, #2819
 268 009e 40F60143 		movw	r3, #3073
 269 00a2 1848     		ldr	r0, .L28+8
 270 00a4 C7F8E420 		str	r2, [r7, #228]
 271 00a8 A7F8E830 		strh	r3, [r7, #232]	@ movhi
 272 00ac FFF7FEFF 		bl	dsy_encoder_init
 273 00b0 40F20543 		movw	r3, #1029
 274 00b4 0222     		movs	r2, #2
 275 00b6 1448     		ldr	r0, .L28+12
 276 00b8 A7F89230 		strh	r3, [r7, #146]	@ movhi
 277 00bc 134E     		ldr	r6, .L28+16
 278 00be 87F89D20 		strb	r2, [r7, #157]
 279 00c2 FFF7FEFF 		bl	dsy_adc_init
 280 00c6 0020     		movs	r0, #0
 281 00c8 1149     		ldr	r1, .L28+20
 282 00ca 3470     		strb	r4, [r6]
 283 00cc FFF7FEFF 		bl	dsy_audio_set_callback
 284 00d0 0020     		movs	r0, #0
 285 00d2 FFF7FEFF 		bl	dsy_audio_start
 286              	.L24:
 287 00d6 0F4D     		ldr	r5, .L28+24
 288 00d8 0024     		movs	r4, #0
 289              	.L23:
 290 00da E3B2     		uxtb	r3, r4
ARM GAS  C:\Users\shensley\AppData\Local\Temp\ccR8fsOJ.s 			page 6


 291 00dc 3278     		ldrb	r2, [r6]	@ zero_extendqisi2
 292 00de 0134     		adds	r4, r4, #1
 293 00e0 2846     		mov	r0, r5
 294 00e2 9A42     		cmp	r2, r3
 295 00e4 4FF00101 		mov	r1, #1
 296 00e8 05F10405 		add	r5, r5, #4
 297 00ec 08BF     		it	eq
 298 00ee 0021     		moveq	r1, #0
 299 00f0 FFF7FEFF 		bl	dsy_gpio_write
 300 00f4 062C     		cmp	r4, #6
 301 00f6 F0D1     		bne	.L23
 302 00f8 EDE7     		b	.L24
 303              	.L29:
 304 00fa 00BF     		.align	2
 305              	.L28:
 306 00fc 00000000 		.word	.LANCHOR0
 307 0100 06070108 		.word	134285062
 308 0104 E4000000 		.word	.LANCHOR0+228
 309 0108 3A000000 		.word	.LANCHOR0+58
 310 010c 00000000 		.word	.LANCHOR1
 311 0110 00000000 		.word	callback
 312 0114 CB000000 		.word	.LANCHOR0+203
 314              		.global	seed_pins
 315              		.global	seed_ports
 316              		.section	.bss.hw,"aw",%nobits
 317              		.align	2
 318              		.set	.LANCHOR0,. + 0
 321              	hw:
 322 0000 00000000 		.space	268
 322      00000000 
 322      00000000 
 322      00000000 
 322      00000000 
 323              		.section	.bss.led_sel,"aw",%nobits
 324              		.set	.LANCHOR1,. + 0
 327              	led_sel:
 328 0000 00       		.space	1
 329              		.section	.rodata.seed_pins,"a"
 330              		.align	2
 333              	seed_pins:
 334 0000 08       		.byte	8
 335 0001 0C       		.byte	12
 336 0002 0B       		.byte	11
 337 0003 0A       		.byte	10
 338 0004 09       		.byte	9
 339 0005 08       		.byte	8
 340 0006 07       		.byte	7
 341 0007 0C       		.byte	12
 342 0008 0A       		.byte	10
 343 0009 0B       		.byte	11
 344 000a 04       		.byte	4
 345 000b 05       		.byte	5
 346 000c 08       		.byte	8
 347 000d 09       		.byte	9
 348 000e 06       		.byte	6
 349 000f 07       		.byte	7
 350 0010 00       		.byte	0
ARM GAS  C:\Users\shensley\AppData\Local\Temp\ccR8fsOJ.s 			page 7


 351 0011 01       		.byte	1
 352 0012 03       		.byte	3
 353 0013 01       		.byte	1
 354 0014 07       		.byte	7
 355 0015 06       		.byte	6
 356 0016 01       		.byte	1
 357 0017 05       		.byte	5
 358 0018 05       		.byte	5
 359 0019 04       		.byte	4
 360 001a 00       		.byte	0
 361 001b 0B       		.byte	11
 362 001c 09       		.byte	9
 363 001d 02       		.byte	2
 364 001e 0E       		.byte	14
 365 001f 0F       		.byte	15
 366              		.section	.rodata.seed_ports,"a"
 367              		.align	2
 370              	seed_ports:
 371 0000 00       		.byte	0
 372 0001 01       		.byte	1
 373 0002 02       		.byte	2
 374 0003 02       		.byte	2
 375 0004 02       		.byte	2
 376 0005 02       		.byte	2
 377 0006 03       		.byte	3
 378 0007 02       		.byte	2
 379 0008 06       		.byte	6
 380 0009 06       		.byte	6
 381 000a 01       		.byte	1
 382 000b 01       		.byte	1
 383 000c 01       		.byte	1
 384 000d 01       		.byte	1
 385 000e 01       		.byte	1
 386 000f 01       		.byte	1
 387 0010 02       		.byte	2
 388 0011 00       		.byte	0
 389 0012 00       		.byte	0
 390 0013 01       		.byte	1
 391 0014 00       		.byte	0
 392 0015 00       		.byte	0
 393 0016 02       		.byte	2
 394 0017 02       		.byte	2
 395 0018 00       		.byte	0
 396 0019 00       		.byte	0
 397 001a 00       		.byte	0
 398 001b 03       		.byte	3
 399 001c 06       		.byte	6
 400 001d 00       		.byte	0
 401 001e 01       		.byte	1
 402 001f 01       		.byte	1
 403              		.ident	"GCC: (GNU Tools for Arm Embedded Processors 8-2019-q3-update) 8.3.1 20190703 (release) [gc
ARM GAS  C:\Users\shensley\AppData\Local\Temp\ccR8fsOJ.s 			page 8

