ARM GAS  C:\Users\shensley\AppData\Local\Temp\ccOgYOwV.s 			page 1


   1              		.cpu cortex-m7
   2              		.eabi_attribute 28, 1
   3              		.eabi_attribute 20, 1
   4              		.eabi_attribute 21, 1
   5              		.eabi_attribute 23, 3
   6              		.eabi_attribute 24, 1
   7              		.eabi_attribute 25, 1
   8              		.eabi_attribute 26, 1
   9              		.eabi_attribute 30, 2
  10              		.eabi_attribute 34, 1
  11              		.eabi_attribute 18, 4
  12              		.file	"system_stm32h7xx.c"
  13              		.text
  14              		.section	.text.SystemInit,"ax",%progbits
  15              		.align	1
  16              		.p2align 2,,3
  17              		.global	SystemInit
  18              		.arch armv7e-m
  19              		.syntax unified
  20              		.thumb
  21              		.thumb_func
  22              		.fpu fpv5-d16
  24              	SystemInit:
  25              		@ args = 0, pretend = 0, frame = 0
  26              		@ frame_needed = 0, uses_anonymous_args = 0
  27              		@ link register save eliminated.
  28 0000 30B4     		push	{r4, r5}
  29 0002 194C     		ldr	r4, .L5
  30 0004 0022     		movs	r2, #0
  31 0006 194B     		ldr	r3, .L5+4
  32 0008 D4F88810 		ldr	r1, [r4, #136]
  33 000c 1848     		ldr	r0, .L5+8
  34 000e 41F47001 		orr	r1, r1, #15728640
  35 0012 184D     		ldr	r5, .L5+12
  36 0014 C4F88810 		str	r1, [r4, #136]
  37 0018 1C68     		ldr	r4, [r3]
  38 001a 1749     		ldr	r1, .L5+16
  39 001c 44F00104 		orr	r4, r4, #1
  40 0020 1C60     		str	r4, [r3]
  41 0022 1A61     		str	r2, [r3, #16]
  42 0024 1C68     		ldr	r4, [r3]
  43 0026 2040     		ands	r0, r0, r4
  44 0028 1860     		str	r0, [r3]
  45 002a 9A61     		str	r2, [r3, #24]
  46 002c DA61     		str	r2, [r3, #28]
  47 002e 1A62     		str	r2, [r3, #32]
  48 0030 9A62     		str	r2, [r3, #40]
  49 0032 DA62     		str	r2, [r3, #44]
  50 0034 1A63     		str	r2, [r3, #48]
  51 0036 5A63     		str	r2, [r3, #52]
  52 0038 9A63     		str	r2, [r3, #56]
  53 003a DA63     		str	r2, [r3, #60]
  54 003c 1A64     		str	r2, [r3, #64]
  55 003e 5A64     		str	r2, [r3, #68]
  56 0040 1868     		ldr	r0, [r3]
  57 0042 20F48020 		bic	r0, r0, #262144
  58 0046 1860     		str	r0, [r3]
ARM GAS  C:\Users\shensley\AppData\Local\Temp\ccOgYOwV.s 			page 2


  59 0048 1A66     		str	r2, [r3, #96]
  60 004a 2B68     		ldr	r3, [r5]
  61 004c 1940     		ands	r1, r1, r3
  62 004e B1F1005F 		cmp	r1, #536870912
  63 0052 02D2     		bcs	.L2
  64 0054 094B     		ldr	r3, .L5+20
  65 0056 0122     		movs	r2, #1
  66 0058 1A60     		str	r2, [r3]
  67              	.L2:
  68 005a 034B     		ldr	r3, .L5
  69 005c 4FF00062 		mov	r2, #134217728
  70 0060 30BC     		pop	{r4, r5}
  71 0062 9A60     		str	r2, [r3, #8]
  72 0064 7047     		bx	lr
  73              	.L6:
  74 0066 00BF     		.align	2
  75              	.L5:
  76 0068 00ED00E0 		.word	-536810240
  77 006c 00440258 		.word	1476543488
  78 0070 7FEDF6EA 		.word	-352916097
  79 0074 0010005C 		.word	1543507968
  80 0078 0000FFFF 		.word	-65536
  81 007c 08810051 		.word	1358987528
  83              		.section	.text.SystemCoreClockUpdate,"ax",%progbits
  84              		.align	1
  85              		.p2align 2,,3
  86              		.global	SystemCoreClockUpdate
  87              		.syntax unified
  88              		.thumb
  89              		.thumb_func
  90              		.fpu fpv5-d16
  92              	SystemCoreClockUpdate:
  93              		@ args = 0, pretend = 0, frame = 0
  94              		@ frame_needed = 0, uses_anonymous_args = 0
  95              		@ link register save eliminated.
  96 0000 424A     		ldr	r2, .L24
  97 0002 1369     		ldr	r3, [r2, #16]
  98 0004 03F03803 		and	r3, r3, #56
  99 0008 102B     		cmp	r3, #16
 100 000a 30B4     		push	{r4, r5}
 101 000c 17D0     		beq	.L15
 102 000e 182B     		cmp	r3, #24
 103 0010 1ED0     		beq	.L9
 104 0012 B3B1     		cbz	r3, .L23
 105 0014 3E4B     		ldr	r3, .L24+4
 106              	.L8:
 107 0016 3D48     		ldr	r0, .L24
 108 0018 3E49     		ldr	r1, .L24+8
 109 001a 8269     		ldr	r2, [r0, #24]
 110 001c 3E4D     		ldr	r5, .L24+12
 111 001e C2F30322 		ubfx	r2, r2, #8, #4
 112 0022 3E4C     		ldr	r4, .L24+16
 113 0024 8A5C     		ldrb	r2, [r1, r2]	@ zero_extendqisi2
 114 0026 D340     		lsrs	r3, r3, r2
 115 0028 2B60     		str	r3, [r5]
 116 002a 8269     		ldr	r2, [r0, #24]
 117 002c 02F00F02 		and	r2, r2, #15
ARM GAS  C:\Users\shensley\AppData\Local\Temp\ccOgYOwV.s 			page 3


 118 0030 8A5C     		ldrb	r2, [r1, r2]	@ zero_extendqisi2
 119 0032 02F01F02 		and	r2, r2, #31
 120 0036 D340     		lsrs	r3, r3, r2
 121 0038 2360     		str	r3, [r4]
 122 003a 30BC     		pop	{r4, r5}
 123 003c 7047     		bx	lr
 124              	.L15:
 125 003e 384B     		ldr	r3, .L24+20
 126 0040 E9E7     		b	.L8
 127              	.L23:
 128 0042 1368     		ldr	r3, [r2]
 129 0044 374A     		ldr	r2, .L24+24
 130 0046 C3F3C103 		ubfx	r3, r3, #3, #2
 131 004a 22FA03F3 		lsr	r3, r2, r3
 132 004e E2E7     		b	.L8
 133              	.L9:
 134 0050 906A     		ldr	r0, [r2, #40]
 135 0052 936A     		ldr	r3, [r2, #40]
 136 0054 D16A     		ldr	r1, [r2, #44]
 137 0056 C3F30513 		ubfx	r3, r3, #4, #6
 138 005a 546B     		ldr	r4, [r2, #52]
 139 005c 002B     		cmp	r3, #0
 140 005e DAD0     		beq	.L8
 141 0060 C4F3CC04 		ubfx	r4, r4, #3, #13
 142 0064 01F00101 		and	r1, r1, #1
 143 0068 07EE903A 		vmov	s15, r3	@ int
 144 006c 00F00300 		and	r0, r0, #3
 145 0070 01FB04F3 		mul	r3, r1, r4
 146 0074 B8EEE76A 		vcvt.f32.s32	s12, s15
 147 0078 0128     		cmp	r0, #1
 148 007a 07EE903A 		vmov	s15, r3	@ int
 149 007e FAEEE97A 		vcvt.f32.s32	s15, s15, #13
 150 0082 25D0     		beq	.L20
 151 0084 38B3     		cbz	r0, .L11
 152 0086 0228     		cmp	r0, #2
 153 0088 22D1     		bne	.L20
 154 008a 9FED277A 		vldr.32	s14, .L24+28
 155              	.L22:
 156 008e C7EE066A 		vdiv.f32	s13, s14, s12
 157 0092 136B     		ldr	r3, [r2, #48]
 158 0094 C3F30803 		ubfx	r3, r3, #0, #9
 159 0098 07EE103A 		vmov	s14, r3	@ int
 160 009c F7EE005A 		vmov.f32	s11, #1.0e+0
 161 00a0 B8EEC77A 		vcvt.f32.s32	s14, s14
 162 00a4 77EE277A 		vadd.f32	s15, s14, s15
 163 00a8 77EEA57A 		vadd.f32	s15, s15, s11
 164 00ac 67EEA67A 		vmul.f32	s15, s15, s13
 165              	.L14:
 166 00b0 164B     		ldr	r3, .L24
 167 00b2 1B6B     		ldr	r3, [r3, #48]
 168 00b4 C3F34623 		ubfx	r3, r3, #9, #7
 169 00b8 0133     		adds	r3, r3, #1
 170 00ba 07EE103A 		vmov	s14, r3	@ int
 171 00be B8EEC77A 		vcvt.f32.s32	s14, s14
 172 00c2 C7EE876A 		vdiv.f32	s13, s15, s14
 173 00c6 FCEEE67A 		vcvt.u32.f32	s15, s13
 174 00ca 17EE903A 		vmov	r3, s15	@ int
ARM GAS  C:\Users\shensley\AppData\Local\Temp\ccOgYOwV.s 			page 4


 175 00ce A2E7     		b	.L8
 176              	.L20:
 177 00d0 9FED167A 		vldr.32	s14, .L24+32
 178 00d4 DBE7     		b	.L22
 179              	.L11:
 180 00d6 1068     		ldr	r0, [r2]
 181 00d8 B7EE005A 		vmov.f32	s10, #1.0e+0
 182 00dc 1149     		ldr	r1, .L24+24
 183 00de C0F3C100 		ubfx	r0, r0, #3, #2
 184 00e2 136B     		ldr	r3, [r2, #48]
 185 00e4 C140     		lsrs	r1, r1, r0
 186 00e6 C3F30803 		ubfx	r3, r3, #0, #9
 187 00ea 07EE101A 		vmov	s14, r1	@ int
 188 00ee F8EEC75A 		vcvt.f32.s32	s11, s14
 189 00f2 07EE103A 		vmov	s14, r3	@ int
 190 00f6 F8EEC76A 		vcvt.f32.s32	s13, s14
 191 00fa 85EE867A 		vdiv.f32	s14, s11, s12
 192 00fe 76EEA77A 		vadd.f32	s15, s13, s15
 193 0102 77EE857A 		vadd.f32	s15, s15, s10
 194 0106 67EE277A 		vmul.f32	s15, s14, s15
 195 010a D1E7     		b	.L14
 196              	.L25:
 197              		.align	2
 198              	.L24:
 199 010c 00440258 		.word	1476543488
 200 0110 00093D00 		.word	4000000
 201 0114 00000000 		.word	.LANCHOR0
 202 0118 00000000 		.word	.LANCHOR1
 203 011c 00000000 		.word	.LANCHOR2
 204 0120 40787D01 		.word	25000000
 205 0124 0090D003 		.word	64000000
 206 0128 20BCBE4B 		.word	1270791200
 207 012c 0024744A 		.word	1249125376
 209              		.global	D1CorePrescTable
 210              		.global	SystemD2Clock
 211              		.global	SystemCoreClock
 212              		.section	.data.SystemCoreClock,"aw"
 213              		.align	2
 214              		.set	.LANCHOR1,. + 0
 217              	SystemCoreClock:
 218 0000 0090D003 		.word	64000000
 219              		.section	.data.SystemD2Clock,"aw"
 220              		.align	2
 221              		.set	.LANCHOR2,. + 0
 224              	SystemD2Clock:
 225 0000 0090D003 		.word	64000000
 226              		.section	.rodata.D1CorePrescTable,"a"
 227              		.align	2
 228              		.set	.LANCHOR0,. + 0
 231              	D1CorePrescTable:
 232 0000 00       		.byte	0
 233 0001 00       		.byte	0
 234 0002 00       		.byte	0
 235 0003 00       		.byte	0
 236 0004 01       		.byte	1
 237 0005 02       		.byte	2
 238 0006 03       		.byte	3
ARM GAS  C:\Users\shensley\AppData\Local\Temp\ccOgYOwV.s 			page 5


 239 0007 04       		.byte	4
 240 0008 01       		.byte	1
 241 0009 02       		.byte	2
 242 000a 03       		.byte	3
 243 000b 04       		.byte	4
 244 000c 06       		.byte	6
 245 000d 07       		.byte	7
 246 000e 08       		.byte	8
 247 000f 09       		.byte	9
 248              		.ident	"GCC: (GNU Tools for Arm Embedded Processors 8-2019-q3-update) 8.3.1 20190703 (release) [gc
ARM GAS  C:\Users\shensley\AppData\Local\Temp\ccOgYOwV.s 			page 6


DEFINED SYMBOLS
                            *ABS*:00000000 system_stm32h7xx.c
C:\Users\shensley\AppData\Local\Temp\ccOgYOwV.s:15     .text.SystemInit:00000000 $t
C:\Users\shensley\AppData\Local\Temp\ccOgYOwV.s:24     .text.SystemInit:00000000 SystemInit
C:\Users\shensley\AppData\Local\Temp\ccOgYOwV.s:76     .text.SystemInit:00000068 $d
C:\Users\shensley\AppData\Local\Temp\ccOgYOwV.s:84     .text.SystemCoreClockUpdate:00000000 $t
C:\Users\shensley\AppData\Local\Temp\ccOgYOwV.s:92     .text.SystemCoreClockUpdate:00000000 SystemCoreClockUpdate
C:\Users\shensley\AppData\Local\Temp\ccOgYOwV.s:199    .text.SystemCoreClockUpdate:0000010c $d
C:\Users\shensley\AppData\Local\Temp\ccOgYOwV.s:231    .rodata.D1CorePrescTable:00000000 D1CorePrescTable
C:\Users\shensley\AppData\Local\Temp\ccOgYOwV.s:224    .data.SystemD2Clock:00000000 SystemD2Clock
C:\Users\shensley\AppData\Local\Temp\ccOgYOwV.s:217    .data.SystemCoreClock:00000000 SystemCoreClock
C:\Users\shensley\AppData\Local\Temp\ccOgYOwV.s:213    .data.SystemCoreClock:00000000 $d
C:\Users\shensley\AppData\Local\Temp\ccOgYOwV.s:220    .data.SystemD2Clock:00000000 $d
C:\Users\shensley\AppData\Local\Temp\ccOgYOwV.s:227    .rodata.D1CorePrescTable:00000000 $d

NO UNDEFINED SYMBOLS
