ARM GAS  C:\Users\Andrew\AppData\Local\Temp\cc93Fjx7.s 			page 1


   1              		.cpu cortex-m7
   2              		.eabi_attribute 28, 1
   3              		.eabi_attribute 20, 1
   4              		.eabi_attribute 21, 1
   5              		.eabi_attribute 23, 3
   6              		.eabi_attribute 24, 1
   7              		.eabi_attribute 25, 1
   8              		.eabi_attribute 26, 1
   9              		.eabi_attribute 30, 2
  10              		.eabi_attribute 34, 1
  11              		.eabi_attribute 18, 4
  12              		.file	"ex_reverbsc.c"
  13              		.text
  14              		.section	.text.VerbCallback,"ax",%progbits
  15              		.align	1
  16              		.p2align 2,,3
  17              		.arch armv7e-m
  18              		.syntax unified
  19              		.thumb
  20              		.thumb_func
  21              		.fpu fpv5-d16
  23              	VerbCallback:
  24              		@ args = 0, pretend = 0, frame = 16
  25              		@ frame_needed = 0, uses_anonymous_args = 0
  26 0000 002A     		cmp	r2, #0
  27 0002 6FD0     		beq	.L9
  28 0004 013A     		subs	r2, r2, #1
  29 0006 2DE9F04F 		push	{r4, r5, r6, r7, r8, r9, r10, fp, lr}
  30 000a 374F     		ldr	r7, .L13
  31 000c 0546     		mov	r5, r0
  32 000e 0C46     		mov	r4, r1
  33 0010 22F00109 		bic	r9, r2, #1
  34 0014 BB46     		mov	fp, r7
  35 0016 0026     		movs	r6, #0
  36 0018 DFF8E480 		ldr	r8, .L13+24
  37 001c DFF8E4A0 		ldr	r10, .L13+28
  38 0020 2DED068B 		vpush.64	{d8, d9, d10}
  39 0024 DFED31AA 		vldr.32	s21, .L13+4
  40 0028 87B0     		sub	sp, sp, #28
  41 002a 9FED31AA 		vldr.32	s20, .L13+8
  42 002e DFED319A 		vldr.32	s19, .L13+12
  43 0032 9FED319A 		vldr.32	s18, .L13+16
  44              	.L3:
  45 0036 0020     		movs	r0, #0
  46 0038 0835     		adds	r5, r5, #8
  47 003a FFF7FEFF 		bl	dsy_adc_get_float
  48 003e F0EE4A7A 		vmov.f32	s15, s20
  49 0042 0120     		movs	r0, #1
  50 0044 0834     		adds	r4, r4, #8
  51 0046 E0EE2A7A 		vfma.f32	s15, s0, s21
  52 004a C7ED007A 		vstr.32	s15, [r7]
  53 004e FFF7FEFF 		bl	dsy_adc_get_float
  54 0052 F0EE497A 		vmov.f32	s15, s18
  55 0056 0220     		movs	r0, #2
  56 0058 E0EE297A 		vfma.f32	s15, s0, s19
  57 005c C7ED017A 		vstr.32	s15, [r7, #4]
  58 0060 FFF7FEFF 		bl	dsy_adc_get_float
ARM GAS  C:\Users\Andrew\AppData\Local\Temp\cc93Fjx7.s 			page 2


  59 0064 0320     		movs	r0, #3
  60 0066 88ED000A 		vstr.32	s0, [r8]
  61 006a FFF7FEFF 		bl	dsy_adc_get_float
  62 006e 55ED028A 		vldr.32	s17, [r5, #-8]
  63 0072 15ED018A 		vldr.32	s16, [r5, #-4]
  64 0076 03AA     		add	r2, sp, #12
  65 0078 60EE287A 		vmul.f32	s15, s0, s17
  66 007c 02AB     		add	r3, sp, #8
  67 007e 20EE080A 		vmul.f32	s0, s0, s16
  68 0082 04A9     		add	r1, sp, #16
  69 0084 0092     		str	r2, [sp]
  70 0086 5846     		mov	r0, fp
  71 0088 05AA     		add	r2, sp, #20
  72 008a CDED047A 		vstr.32	s15, [sp, #16]
  73 008e 8DED050A 		vstr.32	s0, [sp, #20]
  74 0092 FFF7FEFF 		bl	dsy_reverbsc_process
  75 0096 5046     		mov	r0, r10
  76 0098 9DED020A 		vldr.32	s0, [sp, #8]
  77 009c FFF7FEFF 		bl	dsy_dcblock_process
  78 00a0 F0EE407A 		vmov.f32	s15, s0
  79 00a4 1548     		ldr	r0, .L13+20
  80 00a6 9DED030A 		vldr.32	s0, [sp, #12]
  81 00aa CDED027A 		vstr.32	s15, [sp, #8]
  82 00ae FFF7FEFF 		bl	dsy_dcblock_process
  83 00b2 F0EE406A 		vmov.f32	s13, s0
  84 00b6 98ED007A 		vldr.32	s14, [r8]
  85 00ba DDED027A 		vldr.32	s15, [sp, #8]
  86 00be 4E45     		cmp	r6, r9
  87 00c0 8DED030A 		vstr.32	s0, [sp, #12]
  88 00c4 06F10206 		add	r6, r6, #2
  89 00c8 E7EE287A 		vfma.f32	s15, s14, s17
  90 00cc E7EE086A 		vfma.f32	s13, s14, s16
  91 00d0 44ED027A 		vstr.32	s15, [r4, #-8]
  92 00d4 44ED016A 		vstr.32	s13, [r4, #-4]
  93 00d8 ADD1     		bne	.L3
  94 00da 07B0     		add	sp, sp, #28
  95              		@ sp needed
  96 00dc BDEC068B 		vldm	sp!, {d8-d10}
  97 00e0 BDE8F08F 		pop	{r4, r5, r6, r7, r8, r9, r10, fp, pc}
  98              	.L9:
  99 00e4 7047     		bx	lr
 100              	.L14:
 101 00e6 00BF     		.align	2
 102              	.L13:
 103 00e8 00000000 		.word	verb
 104 00ec 9A99593F 		.word	1062836634
 105 00f0 9A99193E 		.word	1041865114
 106 00f4 00A08C46 		.word	1183621120
 107 00f8 00004843 		.word	1128792064
 108 00fc 0C000000 		.word	.LANCHOR1+12
 109 0100 00000000 		.word	.LANCHOR0
 110 0104 00000000 		.word	.LANCHOR1
 112              		.section	.text.daisy_seed_init,"ax",%progbits
 113              		.align	1
 114              		.p2align 2,,3
 115              		.global	daisy_seed_init
 116              		.syntax unified
ARM GAS  C:\Users\Andrew\AppData\Local\Temp\cc93Fjx7.s 			page 3


 117              		.thumb
 118              		.thumb_func
 119              		.fpu fpv5-d16
 121              	daisy_seed_init:
 122              		@ args = 0, pretend = 0, frame = 0
 123              		@ frame_needed = 0, uses_anonymous_args = 0
 124 0000 2DE9F047 		push	{r4, r5, r6, r7, r8, r9, r10, lr}
 125 0004 0446     		mov	r4, r0
 126 0006 4FF00A08 		mov	r8, #10
 127 000a 0023     		movs	r3, #0
 128 000c 0122     		movs	r2, #1
 129 000e 0521     		movs	r1, #5
 130 0010 0220     		movs	r0, #2
 131 0012 0425     		movs	r5, #4
 132 0014 4FF0090E 		mov	lr, #9
 133 0018 0626     		movs	r6, #6
 134 001a 4FF0030C 		mov	ip, #3
 135 001e 0727     		movs	r7, #7
 136 0020 4FF00809 		mov	r9, #8
 137 0024 84F80E80 		strb	r8, [r4, #14]
 138 0028 4FF00E0A 		mov	r10, #14
 139 002c 4FF00B08 		mov	r8, #11
 140 0030 2271     		strb	r2, [r4, #4]
 141 0032 A274     		strb	r2, [r4, #18]
 142 0034 6171     		strb	r1, [r4, #5]
 143 0036 E171     		strb	r1, [r4, #7]
 144 0038 6172     		strb	r1, [r4, #9]
 145 003a E172     		strb	r1, [r4, #11]
 146 003c 6173     		strb	r1, [r4, #13]
 147 003e A170     		strb	r1, [r4, #2]
 148 0040 E177     		strb	r1, [r4, #31]
 149 0042 E370     		strb	r3, [r4, #3]
 150 0044 2370     		strb	r3, [r4]
 151 0046 2375     		strb	r3, [r4, #20]
 152 0048 A375     		strb	r3, [r4, #22]
 153 004a 84F808E0 		strb	lr, [r4, #8]
 154 004e 6074     		strb	r0, [r4, #17]
 155 0050 2076     		strb	r0, [r4, #24]
 156 0052 E076     		strb	r0, [r4, #27]
 157 0054 84F80690 		strb	r9, [r4, #6]
 158 0058 A772     		strb	r7, [r4, #10]
 159 005a 6770     		strb	r7, [r4, #1]
 160 005c 2673     		strb	r6, [r4, #12]
 161 005e E673     		strb	r6, [r4, #15]
 162 0060 2674     		strb	r6, [r4, #16]
 163 0062 84F82160 		strb	r6, [r4, #33]
 164 0066 A576     		strb	r5, [r4, #26]
 165 0068 2577     		strb	r5, [r4, #28]
 166 006a 6577     		strb	r5, [r4, #29]
 167 006c A577     		strb	r5, [r4, #30]
 168 006e 84F82050 		strb	r5, [r4, #32]
 169 0072 84F82250 		strb	r5, [r4, #34]
 170 0076 84F823C0 		strb	ip, [r4, #35]
 171 007a E274     		strb	r2, [r4, #19]
 172 007c E275     		strb	r2, [r4, #23]
 173 007e 84F82520 		strb	r2, [r4, #37]
 174 0082 84F83320 		strb	r2, [r4, #51]
ARM GAS  C:\Users\Andrew\AppData\Local\Temp\cc93Fjx7.s 			page 4


 175 0086 84F82F20 		strb	r2, [r4, #47]
 176 008a 84F83120 		strb	r2, [r4, #49]
 177 008e 84F83420 		strb	r2, [r4, #52]
 178 0092 84F83920 		strb	r2, [r4, #57]
 179 0096 84F83720 		strb	r2, [r4, #55]
 180 009a 84F83D10 		strb	r1, [r4, #61]
 181 009e 84F83E20 		strb	r2, [r4, #62]
 182 00a2 84F83F20 		strb	r2, [r4, #63]
 183 00a6 6375     		strb	r3, [r4, #21]
 184 00a8 84F82430 		strb	r3, [r4, #36]
 185 00ac 84F827E0 		strb	lr, [r4, #39]
 186 00b0 84F82830 		strb	r3, [r4, #40]
 187 00b4 84F82AC0 		strb	ip, [r4, #42]
 188 00b8 84F82C30 		strb	r3, [r4, #44]
 189 00bc 84F82D30 		strb	r3, [r4, #45]
 190 00c0 84F82E30 		strb	r3, [r4, #46]
 191 00c4 84F832E0 		strb	lr, [r4, #50]
 192 00c8 84F83A30 		strb	r3, [r4, #58]
 193 00cc 84F84030 		strb	r3, [r4, #64]
 194 00d0 6076     		strb	r0, [r4, #25]
 195 00d2 84F82900 		strb	r0, [r4, #41]
 196 00d6 84F83C00 		strb	r0, [r4, #60]
 197 00da 84F82660 		strb	r6, [r4, #38]
 198 00de 84F83090 		strb	r9, [r4, #48]
 199 00e2 84F83570 		strb	r7, [r4, #53]
 200 00e6 84F83650 		strb	r5, [r4, #54]
 201 00ea 84F83B60 		strb	r6, [r4, #59]
 202 00ee 84F82B80 		strb	r8, [r4, #43]
 203 00f2 84F83880 		strb	r8, [r4, #56]
 204 00f6 84F84520 		strb	r2, [r4, #69]
 205 00fa 84F84B20 		strb	r2, [r4, #75]
 206 00fe 84F84F10 		strb	r1, [r4, #79]
 207 0102 84F8AA20 		strb	r2, [r4, #170]
 208 0106 84F8AE10 		strb	r1, [r4, #174]
 209 010a 84F8B120 		strb	r2, [r4, #177]
 210 010e 84F8B520 		strb	r2, [r4, #181]
 211 0112 84F84330 		strb	r3, [r4, #67]
 212 0116 84F84630 		strb	r3, [r4, #70]
 213 011a 84F847C0 		strb	ip, [r4, #71]
 214 011e 84F84830 		strb	r3, [r4, #72]
 215 0122 84F84930 		strb	r3, [r4, #73]
 216 0126 84F84A30 		strb	r3, [r4, #74]
 217 012a 84F84C30 		strb	r3, [r4, #76]
 218 012e 84F84E30 		strb	r3, [r4, #78]
 219 0132 84F8A930 		strb	r3, [r4, #169]
 220 0136 84F8AB30 		strb	r3, [r4, #171]
 221 013a 84F8AD30 		strb	r3, [r4, #173]
 222 013e 84F84200 		strb	r0, [r4, #66]
 223 0142 84F84400 		strb	r0, [r4, #68]
 224 0146 84F8AF00 		strb	r0, [r4, #175]
 225 014a 84F84170 		strb	r7, [r4, #65]
 226 014e 84F84D50 		strb	r5, [r4, #77]
 227 0152 84F8AC50 		strb	r5, [r4, #172]
 228 0156 84F8B070 		strb	r7, [r4, #176]
 229 015a 84F8B360 		strb	r6, [r4, #179]
 230 015e 84F8B4A0 		strb	r10, [r4, #180]
 231 0162 FFF7FEFF 		bl	dsy_system_init
ARM GAS  C:\Users\Andrew\AppData\Local\Temp\cc93Fjx7.s 			page 5


 232 0166 2046     		mov	r0, r4
 233 0168 FFF7FEFF 		bl	dsy_sdram_init
 234 016c E01C     		adds	r0, r4, #3
 235 016e FFF7FEFF 		bl	dsy_qspi_init
 236 0172 04F1AF00 		add	r0, r4, #175
 237 0176 FFF7FEFF 		bl	dsy_gpio_init
 238 017a 04F1B300 		add	r0, r4, #179
 239 017e FFF7FEFF 		bl	dsy_gpio_init
 240 0182 04F12E02 		add	r2, r4, #46
 241 0186 04F13401 		add	r1, r4, #52
 242 018a 04F11100 		add	r0, r4, #17
 243 018e BDE8F047 		pop	{r4, r5, r6, r7, r8, r9, r10, lr}
 244 0192 FFF7FEBF 		b	dsy_audio_init
 246 0196 00BF     		.section	.text.startup.main,"ax",%progbits
 247              		.align	1
 248              		.p2align 2,,3
 249              		.global	main
 250              		.syntax unified
 251              		.thumb
 252              		.thumb_func
 253              		.fpu fpv5-d16
 255              	main:
 256              		@ Volatile: function does not return.
 257              		@ args = 0, pretend = 0, frame = 8
 258              		@ frame_needed = 0, uses_anonymous_args = 0
 259 0000 3A4C     		ldr	r4, .L24
 260 0002 0025     		movs	r5, #0
 261 0004 0826     		movs	r6, #8
 262 0006 04F12A00 		add	r0, r4, #42
 263 000a 80B5     		push	{r7, lr}
 264 000c 82B0     		sub	sp, sp, #8
 265 000e 04F1C407 		add	r7, r4, #196
 266 0012 FFF7FEFF 		bl	daisy_seed_init
 267 0016 0C22     		movs	r2, #12
 268 0018 0623     		movs	r3, #6
 269 001a 0B21     		movs	r1, #11
 270 001c A274     		strb	r2, [r4, #18]
 271 001e 40F20152 		movw	r2, #1281
 272 0022 E376     		strb	r3, [r4, #27]
 273 0024 40F20143 		movw	r3, #1025
 274 0028 2177     		strb	r1, [r4, #28]
 275 002a 40F60621 		movw	r1, #2566
 276 002e E283     		strh	r2, [r4, #30]	@ movhi
 277 0030 40F20112 		movw	r2, #257
 278 0034 6384     		strh	r3, [r4, #34]	@ movhi
 279 0036 0123     		movs	r3, #1
 280 0038 E184     		strh	r1, [r4, #38]	@ movhi
 281 003a 2046     		mov	r0, r4
 282 003c 2280     		strh	r2, [r4]	@ movhi
 283 003e 6281     		strh	r2, [r4, #10]	@ movhi
 284 0040 2385     		strh	r3, [r4, #40]	@ movhi
 285 0042 A370     		strb	r3, [r4, #2]
 286 0044 6374     		strb	r3, [r4, #17]
 287 0046 2373     		strb	r3, [r4, #12]
 288 0048 A375     		strb	r3, [r4, #22]
 289 004a E571     		strb	r5, [r4, #7]
 290 004c 2575     		strb	r5, [r4, #20]
ARM GAS  C:\Users\Andrew\AppData\Local\Temp\cc93Fjx7.s 			page 6


 291 004e 84F82050 		strb	r5, [r4, #32]
 292 0052 84F82450 		strb	r5, [r4, #36]
 293 0056 2672     		strb	r6, [r4, #8]
 294 0058 FFF7FEFF 		bl	dsy_switch_init
 295 005c 04F10A00 		add	r0, r4, #10
 296 0060 FFF7FEFF 		bl	dsy_switch_init
 297 0064 04F11400 		add	r0, r4, #20
 298 0068 FFF7FEFF 		bl	dsy_switch_init
 299 006c 04F11E00 		add	r0, r4, #30
 300 0070 FFF7FEFF 		bl	dsy_gpio_init
 301 0074 04F12200 		add	r0, r4, #34
 302 0078 FFF7FEFF 		bl	dsy_gpio_init
 303 007c 04F12600 		add	r0, r4, #38
 304 0080 FFF7FEFF 		bl	dsy_gpio_init
 305 0084 1A4A     		ldr	r2, .L24+4
 306 0086 04F1BC03 		add	r3, r4, #188
 307 008a 84F8C760 		strb	r6, [r4, #199]
 308 008e 0DF10104 		add	r4, sp, #1
 309 0092 92E80300 		ldm	r2, {r0, r1}
 310 0096 0DEB0602 		add	r2, sp, r6
 311 009a 02E90300 		stmdb	r2, {r0, r1}
 312 009e 01E0     		b	.L19
 313              	.L23:
 314 00a0 14F8015B 		ldrb	r5, [r4], #1	@ zero_extendqisi2
 315              	.L19:
 316 00a4 03F8015B 		strb	r5, [r3], #1
 317 00a8 BB42     		cmp	r3, r7
 318 00aa F9D1     		bne	.L23
 319 00ac 1148     		ldr	r0, .L24+8
 320 00ae FFF7FEFF 		bl	dsy_adc_init
 321 00b2 0321     		movs	r1, #3
 322 00b4 1048     		ldr	r0, .L24+12
 323 00b6 FFF7FEFF 		bl	dsy_dac_init
 324 00ba 9FED100A 		vldr.32	s0, .L24+16
 325 00be 1048     		ldr	r0, .L24+20
 326 00c0 FFF7FEFF 		bl	dsy_reverbsc_init
 327 00c4 4BF68E31 		movw	r1, #48014
 328 00c8 0E48     		ldr	r0, .L24+24
 329 00ca FFF7FEFF 		bl	dsy_dcblock_init
 330 00ce 4BF68E31 		movw	r1, #48014
 331 00d2 0D48     		ldr	r0, .L24+28
 332 00d4 FFF7FEFF 		bl	dsy_dcblock_init
 333 00d8 0020     		movs	r0, #0
 334 00da 0C49     		ldr	r1, .L24+32
 335 00dc FFF7FEFF 		bl	dsy_audio_set_callback
 336 00e0 FFF7FEFF 		bl	dsy_adc_start
 337 00e4 0020     		movs	r0, #0
 338 00e6 FFF7FEFF 		bl	dsy_audio_start
 339              	.L20:
 340 00ea FEE7     		b	.L20
 341              	.L25:
 342              		.align	2
 343              	.L24:
 344 00ec 00000000 		.word	.LANCHOR2
 345 00f0 00000000 		.word	.LANCHOR3
 346 00f4 64000000 		.word	.LANCHOR2+100
 347 00f8 D3000000 		.word	.LANCHOR2+211
ARM GAS  C:\Users\Andrew\AppData\Local\Temp\cc93Fjx7.s 			page 7


 348 00fc 008E3B47 		.word	1195085312
 349 0100 00000000 		.word	verb
 350 0104 00000000 		.word	.LANCHOR1
 351 0108 0C000000 		.word	.LANCHOR1+12
 352 010c 00000000 		.word	VerbCallback
 354              		.global	seed_pins
 355              		.global	seed_ports
 356              		.section	.rodata
 357              		.align	2
 358              		.set	.LANCHOR3,. + 0
 359              	.LC0:
 360 0000 00040305 		.ascii	"\000\004\003\005\001\002\006\010"
 360      01020608 
 361              		.section	.bss.dcblock,"aw",%nobits
 362              		.align	2
 363              		.set	.LANCHOR1,. + 0
 366              	dcblock:
 367 0000 00000000 		.space	24
 367      00000000 
 367      00000000 
 367      00000000 
 367      00000000 
 368              		.section	.bss.drylevel,"aw",%nobits
 369              		.align	2
 370              		.set	.LANCHOR0,. + 0
 373              	drylevel:
 374 0000 00000000 		.space	4
 375              		.section	.bss.patch,"aw",%nobits
 376              		.align	2
 377              		.set	.LANCHOR2,. + 0
 380              	patch:
 381 0000 00000000 		.space	225
 381      00000000 
 381      00000000 
 381      00000000 
 381      00000000 
 382              		.section	.bss.verb,"aw",%nobits
 383              		.align	2
 386              	verb:
 387 0000 00000000 		.space	131424
 387      00000000 
 387      00000000 
 387      00000000 
 387      00000000 
 388              		.section	.rodata.seed_pins,"a"
 389              		.align	2
 392              	seed_pins:
 393 0000 080C0B0A 		.ascii	"\010\014\013\012\011\010\007\014\012\013\004\005\010"
 393      0908070C 
 393      0A0B0405 
 393      08
 394 000d 09060700 		.ascii	"\011\006\007\000\001\003\001\007\006\001\005\005\004"
 394      01030107 
 394      06010505 
 394      04
 395 001a 000B0902 		.ascii	"\000\013\011\002\016\017"
 395      0E0F
ARM GAS  C:\Users\Andrew\AppData\Local\Temp\cc93Fjx7.s 			page 8


 396              		.section	.rodata.seed_ports,"a"
 397              		.align	2
 400              	seed_ports:
 401 0000 00       		.byte	0
 402 0001 01       		.byte	1
 403 0002 02       		.byte	2
 404 0003 02       		.byte	2
 405 0004 02       		.byte	2
 406 0005 02       		.byte	2
 407 0006 03       		.byte	3
 408 0007 02       		.byte	2
 409 0008 06       		.byte	6
 410 0009 06       		.byte	6
 411 000a 01       		.byte	1
 412 000b 01       		.byte	1
 413 000c 01       		.byte	1
 414 000d 01       		.byte	1
 415 000e 01       		.byte	1
 416 000f 01       		.byte	1
 417 0010 02       		.byte	2
 418 0011 00       		.byte	0
 419 0012 00       		.byte	0
 420 0013 01       		.byte	1
 421 0014 00       		.byte	0
 422 0015 00       		.byte	0
 423 0016 02       		.byte	2
 424 0017 02       		.byte	2
 425 0018 00       		.byte	0
 426 0019 00       		.byte	0
 427 001a 00       		.byte	0
 428 001b 03       		.byte	3
 429 001c 06       		.byte	6
 430 001d 00       		.byte	0
 431 001e 01       		.byte	1
 432 001f 01       		.byte	1
 433              		.ident	"GCC: (GNU Tools for Arm Embedded Processors 9-2019-q4-major) 9.2.1 20191025 (release) [ARM
ARM GAS  C:\Users\Andrew\AppData\Local\Temp\cc93Fjx7.s 			page 9

