ARM GAS  C:\Users\Andrew\AppData\Local\Temp\ccccPtJy.s 			page 1


   1              		.cpu cortex-m7
   2              		.eabi_attribute 28, 1
   3              		.eabi_attribute 20, 1
   4              		.eabi_attribute 21, 1
   5              		.eabi_attribute 23, 3
   6              		.eabi_attribute 24, 1
   7              		.eabi_attribute 25, 1
   8              		.eabi_attribute 26, 1
   9              		.eabi_attribute 30, 2
  10              		.eabi_attribute 34, 1
  11              		.eabi_attribute 18, 4
  12              		.file	"bypass.c"
  13              		.text
  14              		.section	.text.Callback,"ax",%progbits
  15              		.align	1
  16              		.p2align 2,,3
  17              		.arch armv7e-m
  18              		.syntax unified
  19              		.thumb
  20              		.thumb_func
  21              		.fpu fpv5-d16
  23              	Callback:
  24              		@ args = 0, pretend = 0, frame = 0
  25              		@ frame_needed = 0, uses_anonymous_args = 0
  26              		@ link register save eliminated.
  27 0000 0B46     		mov	r3, r1
  28 0002 9200     		lsls	r2, r2, #2
  29 0004 0146     		mov	r1, r0
  30 0006 1846     		mov	r0, r3
  31 0008 FFF7FEBF 		b	memcpy
  33              		.section	.text.daisy_seed_init,"ax",%progbits
  34              		.align	1
  35              		.p2align 2,,3
  36              		.global	daisy_seed_init
  37              		.syntax unified
  38              		.thumb
  39              		.thumb_func
  40              		.fpu fpv5-d16
  42              	daisy_seed_init:
  43              		@ args = 0, pretend = 0, frame = 0
  44              		@ frame_needed = 0, uses_anonymous_args = 0
  45 0000 2DE9F047 		push	{r4, r5, r6, r7, r8, r9, r10, lr}
  46 0004 0446     		mov	r4, r0
  47 0006 4FF00A08 		mov	r8, #10
  48 000a 0023     		movs	r3, #0
  49 000c 0122     		movs	r2, #1
  50 000e 0521     		movs	r1, #5
  51 0010 0220     		movs	r0, #2
  52 0012 0425     		movs	r5, #4
  53 0014 4FF0090E 		mov	lr, #9
  54 0018 0626     		movs	r6, #6
  55 001a 4FF0030C 		mov	ip, #3
  56 001e 0727     		movs	r7, #7
  57 0020 4FF00809 		mov	r9, #8
  58 0024 84F80E80 		strb	r8, [r4, #14]
  59 0028 4FF00E0A 		mov	r10, #14
  60 002c 4FF00B08 		mov	r8, #11
ARM GAS  C:\Users\Andrew\AppData\Local\Temp\ccccPtJy.s 			page 2


  61 0030 2271     		strb	r2, [r4, #4]
  62 0032 A274     		strb	r2, [r4, #18]
  63 0034 6171     		strb	r1, [r4, #5]
  64 0036 E171     		strb	r1, [r4, #7]
  65 0038 6172     		strb	r1, [r4, #9]
  66 003a E172     		strb	r1, [r4, #11]
  67 003c 6173     		strb	r1, [r4, #13]
  68 003e A170     		strb	r1, [r4, #2]
  69 0040 E177     		strb	r1, [r4, #31]
  70 0042 E370     		strb	r3, [r4, #3]
  71 0044 2370     		strb	r3, [r4]
  72 0046 2375     		strb	r3, [r4, #20]
  73 0048 A375     		strb	r3, [r4, #22]
  74 004a 84F808E0 		strb	lr, [r4, #8]
  75 004e 6074     		strb	r0, [r4, #17]
  76 0050 2076     		strb	r0, [r4, #24]
  77 0052 E076     		strb	r0, [r4, #27]
  78 0054 84F80690 		strb	r9, [r4, #6]
  79 0058 A772     		strb	r7, [r4, #10]
  80 005a 6770     		strb	r7, [r4, #1]
  81 005c 2673     		strb	r6, [r4, #12]
  82 005e E673     		strb	r6, [r4, #15]
  83 0060 2674     		strb	r6, [r4, #16]
  84 0062 84F82160 		strb	r6, [r4, #33]
  85 0066 A576     		strb	r5, [r4, #26]
  86 0068 2577     		strb	r5, [r4, #28]
  87 006a 6577     		strb	r5, [r4, #29]
  88 006c A577     		strb	r5, [r4, #30]
  89 006e 84F82050 		strb	r5, [r4, #32]
  90 0072 84F82250 		strb	r5, [r4, #34]
  91 0076 84F823C0 		strb	ip, [r4, #35]
  92 007a E274     		strb	r2, [r4, #19]
  93 007c E275     		strb	r2, [r4, #23]
  94 007e 84F82520 		strb	r2, [r4, #37]
  95 0082 84F83320 		strb	r2, [r4, #51]
  96 0086 84F82F20 		strb	r2, [r4, #47]
  97 008a 84F83120 		strb	r2, [r4, #49]
  98 008e 84F83420 		strb	r2, [r4, #52]
  99 0092 84F83920 		strb	r2, [r4, #57]
 100 0096 84F83720 		strb	r2, [r4, #55]
 101 009a 84F83D10 		strb	r1, [r4, #61]
 102 009e 84F83E20 		strb	r2, [r4, #62]
 103 00a2 84F83F20 		strb	r2, [r4, #63]
 104 00a6 6375     		strb	r3, [r4, #21]
 105 00a8 84F82430 		strb	r3, [r4, #36]
 106 00ac 84F827E0 		strb	lr, [r4, #39]
 107 00b0 84F82830 		strb	r3, [r4, #40]
 108 00b4 84F82AC0 		strb	ip, [r4, #42]
 109 00b8 84F82C30 		strb	r3, [r4, #44]
 110 00bc 84F82D30 		strb	r3, [r4, #45]
 111 00c0 84F82E30 		strb	r3, [r4, #46]
 112 00c4 84F832E0 		strb	lr, [r4, #50]
 113 00c8 84F83A30 		strb	r3, [r4, #58]
 114 00cc 84F84030 		strb	r3, [r4, #64]
 115 00d0 6076     		strb	r0, [r4, #25]
 116 00d2 84F82900 		strb	r0, [r4, #41]
 117 00d6 84F83C00 		strb	r0, [r4, #60]
ARM GAS  C:\Users\Andrew\AppData\Local\Temp\ccccPtJy.s 			page 3


 118 00da 84F82660 		strb	r6, [r4, #38]
 119 00de 84F83090 		strb	r9, [r4, #48]
 120 00e2 84F83570 		strb	r7, [r4, #53]
 121 00e6 84F83650 		strb	r5, [r4, #54]
 122 00ea 84F83B60 		strb	r6, [r4, #59]
 123 00ee 84F82B80 		strb	r8, [r4, #43]
 124 00f2 84F83880 		strb	r8, [r4, #56]
 125 00f6 84F84520 		strb	r2, [r4, #69]
 126 00fa 84F84B20 		strb	r2, [r4, #75]
 127 00fe 84F84F10 		strb	r1, [r4, #79]
 128 0102 84F8AA20 		strb	r2, [r4, #170]
 129 0106 84F8AE10 		strb	r1, [r4, #174]
 130 010a 84F8B120 		strb	r2, [r4, #177]
 131 010e 84F8B520 		strb	r2, [r4, #181]
 132 0112 84F84330 		strb	r3, [r4, #67]
 133 0116 84F84630 		strb	r3, [r4, #70]
 134 011a 84F847C0 		strb	ip, [r4, #71]
 135 011e 84F84830 		strb	r3, [r4, #72]
 136 0122 84F84930 		strb	r3, [r4, #73]
 137 0126 84F84A30 		strb	r3, [r4, #74]
 138 012a 84F84C30 		strb	r3, [r4, #76]
 139 012e 84F84E30 		strb	r3, [r4, #78]
 140 0132 84F8A930 		strb	r3, [r4, #169]
 141 0136 84F8AB30 		strb	r3, [r4, #171]
 142 013a 84F8AD30 		strb	r3, [r4, #173]
 143 013e 84F84200 		strb	r0, [r4, #66]
 144 0142 84F84400 		strb	r0, [r4, #68]
 145 0146 84F8AF00 		strb	r0, [r4, #175]
 146 014a 84F84170 		strb	r7, [r4, #65]
 147 014e 84F84D50 		strb	r5, [r4, #77]
 148 0152 84F8AC50 		strb	r5, [r4, #172]
 149 0156 84F8B070 		strb	r7, [r4, #176]
 150 015a 84F8B360 		strb	r6, [r4, #179]
 151 015e 84F8B4A0 		strb	r10, [r4, #180]
 152 0162 FFF7FEFF 		bl	dsy_system_init
 153 0166 2046     		mov	r0, r4
 154 0168 FFF7FEFF 		bl	dsy_sdram_init
 155 016c E01C     		adds	r0, r4, #3
 156 016e FFF7FEFF 		bl	dsy_qspi_init
 157 0172 04F1AF00 		add	r0, r4, #175
 158 0176 FFF7FEFF 		bl	dsy_gpio_init
 159 017a 04F1B300 		add	r0, r4, #179
 160 017e FFF7FEFF 		bl	dsy_gpio_init
 161 0182 04F12E02 		add	r2, r4, #46
 162 0186 04F13401 		add	r1, r4, #52
 163 018a 04F11100 		add	r0, r4, #17
 164 018e BDE8F047 		pop	{r4, r5, r6, r7, r8, r9, r10, lr}
 165 0192 FFF7FEBF 		b	dsy_audio_init
 167 0196 00BF     		.section	.text.startup.main,"ax",%progbits
 168              		.align	1
 169              		.p2align 2,,3
 170              		.global	main
 171              		.syntax unified
 172              		.thumb
 173              		.thumb_func
 174              		.fpu fpv5-d16
 176              	main:
ARM GAS  C:\Users\Andrew\AppData\Local\Temp\ccccPtJy.s 			page 4


 177              		@ Volatile: function does not return.
 178              		@ args = 0, pretend = 0, frame = 0
 179              		@ frame_needed = 0, uses_anonymous_args = 0
 180 0000 0548     		ldr	r0, .L8
 181 0002 08B5     		push	{r3, lr}
 182 0004 FFF7FEFF 		bl	daisy_seed_init
 183 0008 0020     		movs	r0, #0
 184 000a 0449     		ldr	r1, .L8+4
 185 000c FFF7FEFF 		bl	dsy_audio_set_callback
 186 0010 0020     		movs	r0, #0
 187 0012 FFF7FEFF 		bl	dsy_audio_start
 188              	.L6:
 189 0016 FEE7     		b	.L6
 190              	.L9:
 191              		.align	2
 192              	.L8:
 193 0018 00000000 		.word	seed
 194 001c 00000000 		.word	Callback
 196              		.comm	seed,183,4
 197              		.global	seed_pins
 198              		.global	seed_ports
 199              		.section	.rodata.seed_pins,"a"
 200              		.align	2
 203              	seed_pins:
 204 0000 080C0B0A 		.ascii	"\010\014\013\012\011\010\007\014\012\013\004\005\010"
 204      0908070C 
 204      0A0B0405 
 204      08
 205 000d 09060700 		.ascii	"\011\006\007\000\001\003\001\007\006\001\005\005\004"
 205      01030107 
 205      06010505 
 205      04
 206 001a 000B0902 		.ascii	"\000\013\011\002\016\017"
 206      0E0F
 207              		.section	.rodata.seed_ports,"a"
 208              		.align	2
 211              	seed_ports:
 212 0000 00       		.byte	0
 213 0001 01       		.byte	1
 214 0002 02       		.byte	2
 215 0003 02       		.byte	2
 216 0004 02       		.byte	2
 217 0005 02       		.byte	2
 218 0006 03       		.byte	3
 219 0007 02       		.byte	2
 220 0008 06       		.byte	6
 221 0009 06       		.byte	6
 222 000a 01       		.byte	1
 223 000b 01       		.byte	1
 224 000c 01       		.byte	1
 225 000d 01       		.byte	1
 226 000e 01       		.byte	1
 227 000f 01       		.byte	1
 228 0010 02       		.byte	2
 229 0011 00       		.byte	0
 230 0012 00       		.byte	0
 231 0013 01       		.byte	1
ARM GAS  C:\Users\Andrew\AppData\Local\Temp\ccccPtJy.s 			page 5


 232 0014 00       		.byte	0
 233 0015 00       		.byte	0
 234 0016 02       		.byte	2
 235 0017 02       		.byte	2
 236 0018 00       		.byte	0
 237 0019 00       		.byte	0
 238 001a 00       		.byte	0
 239 001b 03       		.byte	3
 240 001c 06       		.byte	6
 241 001d 00       		.byte	0
 242 001e 01       		.byte	1
 243 001f 01       		.byte	1
 244              		.ident	"GCC: (GNU Tools for Arm Embedded Processors 9-2019-q4-major) 9.2.1 20191025 (release) [ARM
ARM GAS  C:\Users\Andrew\AppData\Local\Temp\ccccPtJy.s 			page 6


DEFINED SYMBOLS
                            *ABS*:00000000 bypass.c
C:\Users\Andrew\AppData\Local\Temp\ccccPtJy.s:15     .text.Callback:00000000 $t
C:\Users\Andrew\AppData\Local\Temp\ccccPtJy.s:23     .text.Callback:00000000 Callback
C:\Users\Andrew\AppData\Local\Temp\ccccPtJy.s:34     .text.daisy_seed_init:00000000 $t
C:\Users\Andrew\AppData\Local\Temp\ccccPtJy.s:42     .text.daisy_seed_init:00000000 daisy_seed_init
C:\Users\Andrew\AppData\Local\Temp\ccccPtJy.s:168    .text.startup.main:00000000 $t
C:\Users\Andrew\AppData\Local\Temp\ccccPtJy.s:176    .text.startup.main:00000000 main
C:\Users\Andrew\AppData\Local\Temp\ccccPtJy.s:193    .text.startup.main:00000018 $d
                            *COM*:000000b7 seed
C:\Users\Andrew\AppData\Local\Temp\ccccPtJy.s:203    .rodata.seed_pins:00000000 seed_pins
C:\Users\Andrew\AppData\Local\Temp\ccccPtJy.s:211    .rodata.seed_ports:00000000 seed_ports
C:\Users\Andrew\AppData\Local\Temp\ccccPtJy.s:200    .rodata.seed_pins:00000000 $d
C:\Users\Andrew\AppData\Local\Temp\ccccPtJy.s:208    .rodata.seed_ports:00000000 $d

UNDEFINED SYMBOLS
memcpy
dsy_system_init
dsy_sdram_init
dsy_qspi_init
dsy_gpio_init
dsy_audio_init
dsy_audio_set_callback
dsy_audio_start
