ARM GAS  C:\Users\Andrew\AppData\Local\Temp\ccCpsRDw.s 			page 1


   1              		.cpu cortex-m7
   2              		.eabi_attribute 28, 1
   3              		.eabi_attribute 20, 1
   4              		.eabi_attribute 21, 1
   5              		.eabi_attribute 23, 3
   6              		.eabi_attribute 24, 1
   7              		.eabi_attribute 25, 1
   8              		.eabi_attribute 26, 1
   9              		.eabi_attribute 30, 2
  10              		.eabi_attribute 34, 1
  11              		.eabi_attribute 18, 4
  12              		.file	"noise.c"
  13              		.text
  14              		.section	.text.audioCallback,"ax",%progbits
  15              		.align	1
  16              		.p2align 2,,3
  17              		.arch armv7e-m
  18              		.syntax unified
  19              		.thumb
  20              		.thumb_func
  21              		.fpu fpv5-d16
  23              	audioCallback:
  24              		@ args = 0, pretend = 0, frame = 0
  25              		@ frame_needed = 0, uses_anonymous_args = 0
  26 0000 9AB1     		cbz	r2, .L9
  27 0002 013A     		subs	r2, r2, #1
  28 0004 F8B5     		push	{r3, r4, r5, r6, r7, lr}
  29 0006 0C46     		mov	r4, r1
  30 0008 0025     		movs	r5, #0
  31 000a 084F     		ldr	r7, .L13
  32 000c 22F00106 		bic	r6, r2, #1
  33              	.L3:
  34 0010 3846     		mov	r0, r7
  35 0012 0834     		adds	r4, r4, #8
  36 0014 FFF7FEFF 		bl	dsy_noise_process
  37 0018 B542     		cmp	r5, r6
  38 001a 04ED020A 		vstr.32	s0, [r4, #-8]
  39 001e 05F10205 		add	r5, r5, #2
  40 0022 04ED010A 		vstr.32	s0, [r4, #-4]
  41 0026 F3D1     		bne	.L3
  42 0028 F8BD     		pop	{r3, r4, r5, r6, r7, pc}
  43              	.L9:
  44 002a 7047     		bx	lr
  45              	.L14:
  46              		.align	2
  47              	.L13:
  48 002c 00000000 		.word	.LANCHOR0
  50              		.section	.text.daisy_seed_init,"ax",%progbits
  51              		.align	1
  52              		.p2align 2,,3
  53              		.global	daisy_seed_init
  54              		.syntax unified
  55              		.thumb
  56              		.thumb_func
  57              		.fpu fpv5-d16
  59              	daisy_seed_init:
  60              		@ args = 0, pretend = 0, frame = 8
ARM GAS  C:\Users\Andrew\AppData\Local\Temp\ccCpsRDw.s 			page 2


  61              		@ frame_needed = 0, uses_anonymous_args = 0
  62 0000 2DE9F047 		push	{r4, r5, r6, r7, r8, r9, r10, lr}
  63 0004 0446     		mov	r4, r0
  64 0006 4FF00A0E 		mov	lr, #10
  65 000a 0022     		movs	r2, #0
  66 000c 0121     		movs	r1, #1
  67 000e 0520     		movs	r0, #5
  68 0010 4FF0020C 		mov	ip, #2
  69 0014 0427     		movs	r7, #4
  70 0016 0623     		movs	r3, #6
  71 0018 0726     		movs	r6, #7
  72 001a 4FF00808 		mov	r8, #8
  73 001e 0925     		movs	r5, #9
  74 0020 4FF00309 		mov	r9, #3
  75 0024 82B0     		sub	sp, sp, #8
  76 0026 84F80EE0 		strb	lr, [r4, #14]
  77 002a DFF8C4A1 		ldr	r10, .L21
  78 002e 4FF00B0E 		mov	lr, #11
  79 0032 2171     		strb	r1, [r4, #4]
  80 0034 A174     		strb	r1, [r4, #18]
  81 0036 E270     		strb	r2, [r4, #3]
  82 0038 2270     		strb	r2, [r4]
  83 003a 2275     		strb	r2, [r4, #20]
  84 003c A275     		strb	r2, [r4, #22]
  85 003e 6071     		strb	r0, [r4, #5]
  86 0040 E071     		strb	r0, [r4, #7]
  87 0042 6072     		strb	r0, [r4, #9]
  88 0044 E072     		strb	r0, [r4, #11]
  89 0046 6073     		strb	r0, [r4, #13]
  90 0048 A070     		strb	r0, [r4, #2]
  91 004a E077     		strb	r0, [r4, #31]
  92 004c 2572     		strb	r5, [r4, #8]
  93 004e A672     		strb	r6, [r4, #10]
  94 0050 6670     		strb	r6, [r4, #1]
  95 0052 2373     		strb	r3, [r4, #12]
  96 0054 E373     		strb	r3, [r4, #15]
  97 0056 2374     		strb	r3, [r4, #16]
  98 0058 84F82130 		strb	r3, [r4, #33]
  99 005c 84F80680 		strb	r8, [r4, #6]
 100 0060 84F811C0 		strb	ip, [r4, #17]
 101 0064 84F818C0 		strb	ip, [r4, #24]
 102 0068 84F81BC0 		strb	ip, [r4, #27]
 103 006c A776     		strb	r7, [r4, #26]
 104 006e 2777     		strb	r7, [r4, #28]
 105 0070 6777     		strb	r7, [r4, #29]
 106 0072 A777     		strb	r7, [r4, #30]
 107 0074 84F82070 		strb	r7, [r4, #32]
 108 0078 84F82270 		strb	r7, [r4, #34]
 109 007c 84F82390 		strb	r9, [r4, #35]
 110 0080 E174     		strb	r1, [r4, #19]
 111 0082 6275     		strb	r2, [r4, #21]
 112 0084 E175     		strb	r1, [r4, #23]
 113 0086 84F82420 		strb	r2, [r4, #36]
 114 008a 84F82510 		strb	r1, [r4, #37]
 115 008e 84F82630 		strb	r3, [r4, #38]
 116 0092 84F82750 		strb	r5, [r4, #39]
 117 0096 84F82820 		strb	r2, [r4, #40]
ARM GAS  C:\Users\Andrew\AppData\Local\Temp\ccCpsRDw.s 			page 3


 118 009a 84F82C20 		strb	r2, [r4, #44]
 119 009e 84F82D20 		strb	r2, [r4, #45]
 120 00a2 84F82E20 		strb	r2, [r4, #46]
 121 00a6 84F83310 		strb	r1, [r4, #51]
 122 00aa 84F82F10 		strb	r1, [r4, #47]
 123 00ae 84F83110 		strb	r1, [r4, #49]
 124 00b2 84F83250 		strb	r5, [r4, #50]
 125 00b6 1546     		mov	r5, r2
 126 00b8 84F83410 		strb	r1, [r4, #52]
 127 00bc 84F83910 		strb	r1, [r4, #57]
 128 00c0 84F83560 		strb	r6, [r4, #53]
 129 00c4 84F83710 		strb	r1, [r4, #55]
 130 00c8 84F83A20 		strb	r2, [r4, #58]
 131 00cc 84F83B30 		strb	r3, [r4, #59]
 132 00d0 04F15003 		add	r3, r4, #80
 133 00d4 84F83D00 		strb	r0, [r4, #61]
 134 00d8 84F83E10 		strb	r1, [r4, #62]
 135 00dc 84F83F10 		strb	r1, [r4, #63]
 136 00e0 84F84020 		strb	r2, [r4, #64]
 137 00e4 84F82BE0 		strb	lr, [r4, #43]
 138 00e8 84F819C0 		strb	ip, [r4, #25]
 139 00ec 84F829C0 		strb	ip, [r4, #41]
 140 00f0 84F82A90 		strb	r9, [r4, #42]
 141 00f4 84F83080 		strb	r8, [r4, #48]
 142 00f8 84F83670 		strb	r7, [r4, #54]
 143 00fc 84F83CC0 		strb	ip, [r4, #60]
 144 0100 84F838E0 		strb	lr, [r4, #56]
 145 0104 04F1580E 		add	lr, r4, #88
 146 0108 84F84160 		strb	r6, [r4, #65]
 147 010c 0DEB0106 		add	r6, sp, r1
 148 0110 84F84320 		strb	r2, [r4, #67]
 149 0114 84F84510 		strb	r1, [r4, #69]
 150 0118 84F84620 		strb	r2, [r4, #70]
 151 011c 84F84820 		strb	r2, [r4, #72]
 152 0120 84F84920 		strb	r2, [r4, #73]
 153 0124 84F84A20 		strb	r2, [r4, #74]
 154 0128 84F84B10 		strb	r1, [r4, #75]
 155 012c 84F84C20 		strb	r2, [r4, #76]
 156 0130 84F84E20 		strb	r2, [r4, #78]
 157 0134 0DEB0802 		add	r2, sp, r8
 158 0138 84F84F00 		strb	r0, [r4, #79]
 159 013c 84F842C0 		strb	ip, [r4, #66]
 160 0140 84F844C0 		strb	ip, [r4, #68]
 161 0144 84F84790 		strb	r9, [r4, #71]
 162 0148 84F84D70 		strb	r7, [r4, #77]
 163 014c 84F85B80 		strb	r8, [r4, #91]
 164 0150 9AE80300 		ldm	r10, {r0, r1}
 165 0154 02E90300 		stmdb	r2, {r0, r1}
 166 0158 01E0     		b	.L17
 167              	.L20:
 168 015a 16F8015B 		ldrb	r5, [r6], #1	@ zero_extendqisi2
 169              	.L17:
 170 015e 03F8015B 		strb	r5, [r3], #1
 171 0162 7345     		cmp	r3, lr
 172 0164 F9D1     		bne	.L20
 173 0166 0022     		movs	r2, #0
 174 0168 0123     		movs	r3, #1
ARM GAS  C:\Users\Andrew\AppData\Local\Temp\ccCpsRDw.s 			page 4


 175 016a 0621     		movs	r1, #6
 176 016c 0720     		movs	r0, #7
 177 016e 84F85C20 		strb	r2, [r4, #92]
 178 0172 0427     		movs	r7, #4
 179 0174 84F85E20 		strb	r2, [r4, #94]
 180 0178 0526     		movs	r6, #5
 181 017a 84F86020 		strb	r2, [r4, #96]
 182 017e 0225     		movs	r5, #2
 183 0180 0E22     		movs	r2, #14
 184 0182 84F85D30 		strb	r3, [r4, #93]
 185 0186 84F86430 		strb	r3, [r4, #100]
 186 018a 84F86720 		strb	r2, [r4, #103]
 187 018e 84F86830 		strb	r3, [r4, #104]
 188 0192 84F86610 		strb	r1, [r4, #102]
 189 0196 84F86300 		strb	r0, [r4, #99]
 190 019a 84F85F70 		strb	r7, [r4, #95]
 191 019e 84F86160 		strb	r6, [r4, #97]
 192 01a2 84F86250 		strb	r5, [r4, #98]
 193 01a6 FFF7FEFF 		bl	dsy_system_init
 194 01aa 2046     		mov	r0, r4
 195 01ac FFF7FEFF 		bl	dsy_sdram_init
 196 01b0 E01C     		adds	r0, r4, #3
 197 01b2 FFF7FEFF 		bl	dsy_qspi_init
 198 01b6 04F16200 		add	r0, r4, #98
 199 01ba FFF7FEFF 		bl	dsy_gpio_init
 200 01be 04F16600 		add	r0, r4, #102
 201 01c2 FFF7FEFF 		bl	dsy_gpio_init
 202 01c6 04F13A00 		add	r0, r4, #58
 203 01ca FFF7FEFF 		bl	dsy_adc_init
 204 01ce 04F15C00 		add	r0, r4, #92
 205 01d2 0321     		movs	r1, #3
 206 01d4 FFF7FEFF 		bl	dsy_dac_init
 207 01d8 04F12E02 		add	r2, r4, #46
 208 01dc 04F13401 		add	r1, r4, #52
 209 01e0 04F11100 		add	r0, r4, #17
 210 01e4 02B0     		add	sp, sp, #8
 211              		@ sp needed
 212 01e6 BDE8F047 		pop	{r4, r5, r6, r7, r8, r9, r10, lr}
 213 01ea FFF7FEBF 		b	dsy_audio_init
 214              	.L22:
 215 01ee 00BF     		.align	2
 216              	.L21:
 217 01f0 00000000 		.word	.LANCHOR1
 219              		.section	.text.startup.main,"ax",%progbits
 220              		.align	1
 221              		.p2align 2,,3
 222              		.global	main
 223              		.syntax unified
 224              		.thumb
 225              		.thumb_func
 226              		.fpu fpv5-d16
 228              	main:
 229              		@ Volatile: function does not return.
 230              		@ args = 0, pretend = 0, frame = 0
 231              		@ frame_needed = 0, uses_anonymous_args = 0
 232 0000 08B5     		push	{r3, lr}
 233 0002 0748     		ldr	r0, .L26
ARM GAS  C:\Users\Andrew\AppData\Local\Temp\ccCpsRDw.s 			page 5


 234 0004 FFF7FEFF 		bl	daisy_seed_init
 235 0008 0648     		ldr	r0, .L26+4
 236 000a FFF7FEFF 		bl	dsy_noise_init
 237 000e 0020     		movs	r0, #0
 238 0010 0549     		ldr	r1, .L26+8
 239 0012 FFF7FEFF 		bl	dsy_audio_set_callback
 240 0016 0020     		movs	r0, #0
 241 0018 FFF7FEFF 		bl	dsy_audio_start
 242              	.L24:
 243 001c FEE7     		b	.L24
 244              	.L27:
 245 001e 00BF     		.align	2
 246              	.L26:
 247 0020 00000000 		.word	.LANCHOR2
 248 0024 00000000 		.word	.LANCHOR0
 249 0028 00000000 		.word	audioCallback
 251              		.section	.rodata
 252              		.align	2
 253              		.set	.LANCHOR1,. + 0
 254              	.LC0:
 255 0000 00040305 		.ascii	"\000\004\003\005\001\002\006\010"
 255      01020608 
 256              		.section	.bss.noise_gen,"aw",%nobits
 257              		.align	2
 258              		.set	.LANCHOR0,. + 0
 261              	noise_gen:
 262 0000 00000000 		.space	8
 262      00000000 
 263              		.section	.bss.seed,"aw",%nobits
 264              		.align	2
 265              		.set	.LANCHOR2,. + 0
 268              	seed:
 269 0000 00000000 		.space	106
 269      00000000 
 269      00000000 
 269      00000000 
 269      00000000 
 270              		.ident	"GCC: (GNU Tools for Arm Embedded Processors 9-2019-q4-major) 9.2.1 20191025 (release) [ARM
ARM GAS  C:\Users\Andrew\AppData\Local\Temp\ccCpsRDw.s 			page 6

