ARM GAS  C:\Users\Andrew\AppData\Local\Temp\cc7kOF7a.s 			page 1


   1              		.cpu cortex-m7
   2              		.eabi_attribute 28, 1
   3              		.eabi_attribute 20, 1
   4              		.eabi_attribute 21, 1
   5              		.eabi_attribute 23, 3
   6              		.eabi_attribute 24, 1
   7              		.eabi_attribute 25, 1
   8              		.eabi_attribute 26, 1
   9              		.eabi_attribute 30, 2
  10              		.eabi_attribute 34, 1
  11              		.eabi_attribute 18, 4
  12              		.file	"noise.c"
  13              		.text
  14              		.section	.text.audioCallback,"ax",%progbits
  15              		.align	1
  16              		.p2align 2,,3
  17              		.arch armv7e-m
  18              		.syntax unified
  19              		.thumb
  20              		.thumb_func
  21              		.fpu fpv5-d16
  23              	audioCallback:
  24              		@ args = 0, pretend = 0, frame = 0
  25              		@ frame_needed = 0, uses_anonymous_args = 0
  26 0000 9AB1     		cbz	r2, .L9
  27 0002 013A     		subs	r2, r2, #1
  28 0004 F8B5     		push	{r3, r4, r5, r6, r7, lr}
  29 0006 0C46     		mov	r4, r1
  30 0008 0025     		movs	r5, #0
  31 000a 084F     		ldr	r7, .L13
  32 000c 22F00106 		bic	r6, r2, #1
  33              	.L3:
  34 0010 3846     		mov	r0, r7
  35 0012 0834     		adds	r4, r4, #8
  36 0014 FFF7FEFF 		bl	dsy_noise_process
  37 0018 B542     		cmp	r5, r6
  38 001a 04ED020A 		vstr.32	s0, [r4, #-8]
  39 001e 05F10205 		add	r5, r5, #2
  40 0022 04ED010A 		vstr.32	s0, [r4, #-4]
  41 0026 F3D1     		bne	.L3
  42 0028 F8BD     		pop	{r3, r4, r5, r6, r7, pc}
  43              	.L9:
  44 002a 7047     		bx	lr
  45              	.L14:
  46              		.align	2
  47              	.L13:
  48 002c 00000000 		.word	.LANCHOR0
  50              		.section	.text.daisy_seed_init,"ax",%progbits
  51              		.align	1
  52              		.p2align 2,,3
  53              		.global	daisy_seed_init
  54              		.syntax unified
  55              		.thumb
  56              		.thumb_func
  57              		.fpu fpv5-d16
  59              	daisy_seed_init:
  60              		@ args = 0, pretend = 0, frame = 0
ARM GAS  C:\Users\Andrew\AppData\Local\Temp\cc7kOF7a.s 			page 2


  61              		@ frame_needed = 0, uses_anonymous_args = 0
  62 0000 2DE9F047 		push	{r4, r5, r6, r7, r8, r9, r10, lr}
  63 0004 0446     		mov	r4, r0
  64 0006 4FF00A08 		mov	r8, #10
  65 000a 0023     		movs	r3, #0
  66 000c 0122     		movs	r2, #1
  67 000e 0521     		movs	r1, #5
  68 0010 0220     		movs	r0, #2
  69 0012 0425     		movs	r5, #4
  70 0014 4FF0090E 		mov	lr, #9
  71 0018 0626     		movs	r6, #6
  72 001a 4FF0030C 		mov	ip, #3
  73 001e 0727     		movs	r7, #7
  74 0020 4FF00809 		mov	r9, #8
  75 0024 84F80E80 		strb	r8, [r4, #14]
  76 0028 4FF00E0A 		mov	r10, #14
  77 002c 4FF00B08 		mov	r8, #11
  78 0030 2271     		strb	r2, [r4, #4]
  79 0032 A274     		strb	r2, [r4, #18]
  80 0034 6171     		strb	r1, [r4, #5]
  81 0036 E171     		strb	r1, [r4, #7]
  82 0038 6172     		strb	r1, [r4, #9]
  83 003a E172     		strb	r1, [r4, #11]
  84 003c 6173     		strb	r1, [r4, #13]
  85 003e A170     		strb	r1, [r4, #2]
  86 0040 E177     		strb	r1, [r4, #31]
  87 0042 E370     		strb	r3, [r4, #3]
  88 0044 2370     		strb	r3, [r4]
  89 0046 2375     		strb	r3, [r4, #20]
  90 0048 A375     		strb	r3, [r4, #22]
  91 004a 84F808E0 		strb	lr, [r4, #8]
  92 004e 6074     		strb	r0, [r4, #17]
  93 0050 2076     		strb	r0, [r4, #24]
  94 0052 E076     		strb	r0, [r4, #27]
  95 0054 84F80690 		strb	r9, [r4, #6]
  96 0058 A772     		strb	r7, [r4, #10]
  97 005a 6770     		strb	r7, [r4, #1]
  98 005c 2673     		strb	r6, [r4, #12]
  99 005e E673     		strb	r6, [r4, #15]
 100 0060 2674     		strb	r6, [r4, #16]
 101 0062 84F82160 		strb	r6, [r4, #33]
 102 0066 A576     		strb	r5, [r4, #26]
 103 0068 2577     		strb	r5, [r4, #28]
 104 006a 6577     		strb	r5, [r4, #29]
 105 006c A577     		strb	r5, [r4, #30]
 106 006e 84F82050 		strb	r5, [r4, #32]
 107 0072 84F82250 		strb	r5, [r4, #34]
 108 0076 84F823C0 		strb	ip, [r4, #35]
 109 007a E274     		strb	r2, [r4, #19]
 110 007c E275     		strb	r2, [r4, #23]
 111 007e 84F82520 		strb	r2, [r4, #37]
 112 0082 84F83320 		strb	r2, [r4, #51]
 113 0086 84F82F20 		strb	r2, [r4, #47]
 114 008a 84F83120 		strb	r2, [r4, #49]
 115 008e 84F83420 		strb	r2, [r4, #52]
 116 0092 84F83920 		strb	r2, [r4, #57]
 117 0096 84F83720 		strb	r2, [r4, #55]
ARM GAS  C:\Users\Andrew\AppData\Local\Temp\cc7kOF7a.s 			page 3


 118 009a 84F83D10 		strb	r1, [r4, #61]
 119 009e 84F83E20 		strb	r2, [r4, #62]
 120 00a2 84F83F20 		strb	r2, [r4, #63]
 121 00a6 6375     		strb	r3, [r4, #21]
 122 00a8 84F82430 		strb	r3, [r4, #36]
 123 00ac 84F827E0 		strb	lr, [r4, #39]
 124 00b0 84F82830 		strb	r3, [r4, #40]
 125 00b4 84F82AC0 		strb	ip, [r4, #42]
 126 00b8 84F82C30 		strb	r3, [r4, #44]
 127 00bc 84F82D30 		strb	r3, [r4, #45]
 128 00c0 84F82E30 		strb	r3, [r4, #46]
 129 00c4 84F832E0 		strb	lr, [r4, #50]
 130 00c8 84F83A30 		strb	r3, [r4, #58]
 131 00cc 84F84030 		strb	r3, [r4, #64]
 132 00d0 6076     		strb	r0, [r4, #25]
 133 00d2 84F82900 		strb	r0, [r4, #41]
 134 00d6 84F83C00 		strb	r0, [r4, #60]
 135 00da 84F82660 		strb	r6, [r4, #38]
 136 00de 84F83090 		strb	r9, [r4, #48]
 137 00e2 84F83570 		strb	r7, [r4, #53]
 138 00e6 84F83650 		strb	r5, [r4, #54]
 139 00ea 84F83B60 		strb	r6, [r4, #59]
 140 00ee 84F82B80 		strb	r8, [r4, #43]
 141 00f2 84F83880 		strb	r8, [r4, #56]
 142 00f6 84F84520 		strb	r2, [r4, #69]
 143 00fa 84F84B20 		strb	r2, [r4, #75]
 144 00fe 84F84F10 		strb	r1, [r4, #79]
 145 0102 84F8AA20 		strb	r2, [r4, #170]
 146 0106 84F8AE10 		strb	r1, [r4, #174]
 147 010a 84F8B120 		strb	r2, [r4, #177]
 148 010e 84F8B520 		strb	r2, [r4, #181]
 149 0112 84F84330 		strb	r3, [r4, #67]
 150 0116 84F84630 		strb	r3, [r4, #70]
 151 011a 84F847C0 		strb	ip, [r4, #71]
 152 011e 84F84830 		strb	r3, [r4, #72]
 153 0122 84F84930 		strb	r3, [r4, #73]
 154 0126 84F84A30 		strb	r3, [r4, #74]
 155 012a 84F84C30 		strb	r3, [r4, #76]
 156 012e 84F84E30 		strb	r3, [r4, #78]
 157 0132 84F8A930 		strb	r3, [r4, #169]
 158 0136 84F8AB30 		strb	r3, [r4, #171]
 159 013a 84F8AD30 		strb	r3, [r4, #173]
 160 013e 84F84200 		strb	r0, [r4, #66]
 161 0142 84F84400 		strb	r0, [r4, #68]
 162 0146 84F8AF00 		strb	r0, [r4, #175]
 163 014a 84F84170 		strb	r7, [r4, #65]
 164 014e 84F84D50 		strb	r5, [r4, #77]
 165 0152 84F8AC50 		strb	r5, [r4, #172]
 166 0156 84F8B070 		strb	r7, [r4, #176]
 167 015a 84F8B360 		strb	r6, [r4, #179]
 168 015e 84F8B4A0 		strb	r10, [r4, #180]
 169 0162 FFF7FEFF 		bl	dsy_system_init
 170 0166 2046     		mov	r0, r4
 171 0168 FFF7FEFF 		bl	dsy_sdram_init
 172 016c E01C     		adds	r0, r4, #3
 173 016e FFF7FEFF 		bl	dsy_qspi_init
 174 0172 04F1AF00 		add	r0, r4, #175
ARM GAS  C:\Users\Andrew\AppData\Local\Temp\cc7kOF7a.s 			page 4


 175 0176 FFF7FEFF 		bl	dsy_gpio_init
 176 017a 04F1B300 		add	r0, r4, #179
 177 017e FFF7FEFF 		bl	dsy_gpio_init
 178 0182 04F12E02 		add	r2, r4, #46
 179 0186 04F13401 		add	r1, r4, #52
 180 018a 04F11100 		add	r0, r4, #17
 181 018e BDE8F047 		pop	{r4, r5, r6, r7, r8, r9, r10, lr}
 182 0192 FFF7FEBF 		b	dsy_audio_init
 184 0196 00BF     		.section	.text.startup.main,"ax",%progbits
 185              		.align	1
 186              		.p2align 2,,3
 187              		.global	main
 188              		.syntax unified
 189              		.thumb
 190              		.thumb_func
 191              		.fpu fpv5-d16
 193              	main:
 194              		@ Volatile: function does not return.
 195              		@ args = 0, pretend = 0, frame = 0
 196              		@ frame_needed = 0, uses_anonymous_args = 0
 197 0000 08B5     		push	{r3, lr}
 198 0002 0748     		ldr	r0, .L20
 199 0004 FFF7FEFF 		bl	daisy_seed_init
 200 0008 0648     		ldr	r0, .L20+4
 201 000a FFF7FEFF 		bl	dsy_noise_init
 202 000e 0020     		movs	r0, #0
 203 0010 0549     		ldr	r1, .L20+8
 204 0012 FFF7FEFF 		bl	dsy_audio_set_callback
 205 0016 0020     		movs	r0, #0
 206 0018 FFF7FEFF 		bl	dsy_audio_start
 207              	.L18:
 208 001c FEE7     		b	.L18
 209              	.L21:
 210 001e 00BF     		.align	2
 211              	.L20:
 212 0020 00000000 		.word	.LANCHOR1
 213 0024 00000000 		.word	.LANCHOR0
 214 0028 00000000 		.word	audioCallback
 216              		.global	seed_pins
 217              		.global	seed_ports
 218              		.section	.bss.noise_gen,"aw",%nobits
 219              		.align	2
 220              		.set	.LANCHOR0,. + 0
 223              	noise_gen:
 224 0000 00000000 		.space	8
 224      00000000 
 225              		.section	.bss.seed,"aw",%nobits
 226              		.align	2
 227              		.set	.LANCHOR1,. + 0
 230              	seed:
 231 0000 00000000 		.space	183
 231      00000000 
 231      00000000 
 231      00000000 
 231      00000000 
 232              		.section	.rodata.seed_pins,"a"
 233              		.align	2
ARM GAS  C:\Users\Andrew\AppData\Local\Temp\cc7kOF7a.s 			page 5


 236              	seed_pins:
 237 0000 080C0B0A 		.ascii	"\010\014\013\012\011\010\007\014\012\013\004\005\010"
 237      0908070C 
 237      0A0B0405 
 237      08
 238 000d 09060700 		.ascii	"\011\006\007\000\001\003\001\007\006\001\005\005\004"
 238      01030107 
 238      06010505 
 238      04
 239 001a 000B0902 		.ascii	"\000\013\011\002\016\017"
 239      0E0F
 240              		.section	.rodata.seed_ports,"a"
 241              		.align	2
 244              	seed_ports:
 245 0000 00       		.byte	0
 246 0001 01       		.byte	1
 247 0002 02       		.byte	2
 248 0003 02       		.byte	2
 249 0004 02       		.byte	2
 250 0005 02       		.byte	2
 251 0006 03       		.byte	3
 252 0007 02       		.byte	2
 253 0008 06       		.byte	6
 254 0009 06       		.byte	6
 255 000a 01       		.byte	1
 256 000b 01       		.byte	1
 257 000c 01       		.byte	1
 258 000d 01       		.byte	1
 259 000e 01       		.byte	1
 260 000f 01       		.byte	1
 261 0010 02       		.byte	2
 262 0011 00       		.byte	0
 263 0012 00       		.byte	0
 264 0013 01       		.byte	1
 265 0014 00       		.byte	0
 266 0015 00       		.byte	0
 267 0016 02       		.byte	2
 268 0017 02       		.byte	2
 269 0018 00       		.byte	0
 270 0019 00       		.byte	0
 271 001a 00       		.byte	0
 272 001b 03       		.byte	3
 273 001c 06       		.byte	6
 274 001d 00       		.byte	0
 275 001e 01       		.byte	1
 276 001f 01       		.byte	1
 277              		.ident	"GCC: (GNU Tools for Arm Embedded Processors 9-2019-q4-major) 9.2.1 20191025 (release) [ARM
ARM GAS  C:\Users\Andrew\AppData\Local\Temp\cc7kOF7a.s 			page 6

