ARM GAS  C:\Users\Andrew\AppData\Local\Temp\ccuGFDhg.s 			page 1


   1              		.cpu cortex-m7
   2              		.eabi_attribute 28, 1
   3              		.eabi_attribute 20, 1
   4              		.eabi_attribute 21, 1
   5              		.eabi_attribute 23, 3
   6              		.eabi_attribute 24, 1
   7              		.eabi_attribute 25, 1
   8              		.eabi_attribute 26, 1
   9              		.eabi_attribute 30, 2
  10              		.eabi_attribute 34, 1
  11              		.eabi_attribute 18, 4
  12              		.file	"svf.c"
  13              		.text
  14              		.section	.text.audioCallback,"ax",%progbits
  15              		.align	1
  16              		.p2align 2,,3
  17              		.arch armv7e-m
  18              		.syntax unified
  19              		.thumb
  20              		.thumb_func
  21              		.fpu fpv5-d16
  23              	audioCallback:
  24              		@ args = 0, pretend = 0, frame = 8
  25              		@ frame_needed = 0, uses_anonymous_args = 0
  26 0000 02B3     		cbz	r2, .L9
  27 0002 013A     		subs	r2, r2, #1
  28 0004 F0B5     		push	{r4, r5, r6, r7, lr}
  29 0006 5208     		lsrs	r2, r2, #1
  30 0008 01F10807 		add	r7, r1, #8
  31 000c 83B0     		sub	sp, sp, #12
  32 000e 0C46     		mov	r4, r1
  33 0010 0646     		mov	r6, r0
  34 0012 0D4D     		ldr	r5, .L13
  35 0014 07EBC207 		add	r7, r7, r2, lsl #3
  36              	.L3:
  37 0018 56F8083B 		ldr	r3, [r6], #8	@ float
  38 001c 01A9     		add	r1, sp, #4
  39 001e 2846     		mov	r0, r5
  40 0020 0834     		adds	r4, r4, #8
  41 0022 0193     		str	r3, [sp, #4]	@ float
  42 0024 FFF7FEFF 		bl	dsy_svf_process
  43 0028 2846     		mov	r0, r5
  44 002a FFF7FEFF 		bl	dsy_svf_low
  45 002e 2846     		mov	r0, r5
  46 0030 04ED020A 		vstr.32	s0, [r4, #-8]
  47 0034 FFF7FEFF 		bl	dsy_svf_high
  48 0038 04ED010A 		vstr.32	s0, [r4, #-4]
  49 003c BC42     		cmp	r4, r7
  50 003e EBD1     		bne	.L3
  51 0040 03B0     		add	sp, sp, #12
  52              		@ sp needed
  53 0042 F0BD     		pop	{r4, r5, r6, r7, pc}
  54              	.L9:
  55 0044 7047     		bx	lr
  56              	.L14:
  57 0046 00BF     		.align	2
  58              	.L13:
ARM GAS  C:\Users\Andrew\AppData\Local\Temp\ccuGFDhg.s 			page 2


  59 0048 00000000 		.word	.LANCHOR0
  61              		.section	.text.daisy_seed_init,"ax",%progbits
  62              		.align	1
  63              		.p2align 2,,3
  64              		.global	daisy_seed_init
  65              		.syntax unified
  66              		.thumb
  67              		.thumb_func
  68              		.fpu fpv5-d16
  70              	daisy_seed_init:
  71              		@ args = 0, pretend = 0, frame = 0
  72              		@ frame_needed = 0, uses_anonymous_args = 0
  73 0000 2DE9F047 		push	{r4, r5, r6, r7, r8, r9, r10, lr}
  74 0004 0446     		mov	r4, r0
  75 0006 4FF00A08 		mov	r8, #10
  76 000a 0023     		movs	r3, #0
  77 000c 0122     		movs	r2, #1
  78 000e 0521     		movs	r1, #5
  79 0010 0220     		movs	r0, #2
  80 0012 0425     		movs	r5, #4
  81 0014 4FF0090E 		mov	lr, #9
  82 0018 0626     		movs	r6, #6
  83 001a 4FF0030C 		mov	ip, #3
  84 001e 0727     		movs	r7, #7
  85 0020 4FF00809 		mov	r9, #8
  86 0024 84F80E80 		strb	r8, [r4, #14]
  87 0028 4FF00E0A 		mov	r10, #14
  88 002c 4FF00B08 		mov	r8, #11
  89 0030 2271     		strb	r2, [r4, #4]
  90 0032 A274     		strb	r2, [r4, #18]
  91 0034 6171     		strb	r1, [r4, #5]
  92 0036 E171     		strb	r1, [r4, #7]
  93 0038 6172     		strb	r1, [r4, #9]
  94 003a E172     		strb	r1, [r4, #11]
  95 003c 6173     		strb	r1, [r4, #13]
  96 003e A170     		strb	r1, [r4, #2]
  97 0040 E177     		strb	r1, [r4, #31]
  98 0042 E370     		strb	r3, [r4, #3]
  99 0044 2370     		strb	r3, [r4]
 100 0046 2375     		strb	r3, [r4, #20]
 101 0048 A375     		strb	r3, [r4, #22]
 102 004a 84F808E0 		strb	lr, [r4, #8]
 103 004e 6074     		strb	r0, [r4, #17]
 104 0050 2076     		strb	r0, [r4, #24]
 105 0052 E076     		strb	r0, [r4, #27]
 106 0054 84F80690 		strb	r9, [r4, #6]
 107 0058 A772     		strb	r7, [r4, #10]
 108 005a 6770     		strb	r7, [r4, #1]
 109 005c 2673     		strb	r6, [r4, #12]
 110 005e E673     		strb	r6, [r4, #15]
 111 0060 2674     		strb	r6, [r4, #16]
 112 0062 84F82160 		strb	r6, [r4, #33]
 113 0066 A576     		strb	r5, [r4, #26]
 114 0068 2577     		strb	r5, [r4, #28]
 115 006a 6577     		strb	r5, [r4, #29]
 116 006c A577     		strb	r5, [r4, #30]
 117 006e 84F82050 		strb	r5, [r4, #32]
ARM GAS  C:\Users\Andrew\AppData\Local\Temp\ccuGFDhg.s 			page 3


 118 0072 84F82250 		strb	r5, [r4, #34]
 119 0076 84F823C0 		strb	ip, [r4, #35]
 120 007a E274     		strb	r2, [r4, #19]
 121 007c E275     		strb	r2, [r4, #23]
 122 007e 84F82520 		strb	r2, [r4, #37]
 123 0082 84F83320 		strb	r2, [r4, #51]
 124 0086 84F82F20 		strb	r2, [r4, #47]
 125 008a 84F83120 		strb	r2, [r4, #49]
 126 008e 84F83420 		strb	r2, [r4, #52]
 127 0092 84F83920 		strb	r2, [r4, #57]
 128 0096 84F83720 		strb	r2, [r4, #55]
 129 009a 84F83D10 		strb	r1, [r4, #61]
 130 009e 84F83E20 		strb	r2, [r4, #62]
 131 00a2 84F83F20 		strb	r2, [r4, #63]
 132 00a6 6375     		strb	r3, [r4, #21]
 133 00a8 84F82430 		strb	r3, [r4, #36]
 134 00ac 84F827E0 		strb	lr, [r4, #39]
 135 00b0 84F82830 		strb	r3, [r4, #40]
 136 00b4 84F82AC0 		strb	ip, [r4, #42]
 137 00b8 84F82C30 		strb	r3, [r4, #44]
 138 00bc 84F82D30 		strb	r3, [r4, #45]
 139 00c0 84F82E30 		strb	r3, [r4, #46]
 140 00c4 84F832E0 		strb	lr, [r4, #50]
 141 00c8 84F83A30 		strb	r3, [r4, #58]
 142 00cc 84F84030 		strb	r3, [r4, #64]
 143 00d0 6076     		strb	r0, [r4, #25]
 144 00d2 84F82900 		strb	r0, [r4, #41]
 145 00d6 84F83C00 		strb	r0, [r4, #60]
 146 00da 84F82660 		strb	r6, [r4, #38]
 147 00de 84F83090 		strb	r9, [r4, #48]
 148 00e2 84F83570 		strb	r7, [r4, #53]
 149 00e6 84F83650 		strb	r5, [r4, #54]
 150 00ea 84F83B60 		strb	r6, [r4, #59]
 151 00ee 84F82B80 		strb	r8, [r4, #43]
 152 00f2 84F83880 		strb	r8, [r4, #56]
 153 00f6 84F84520 		strb	r2, [r4, #69]
 154 00fa 84F84B20 		strb	r2, [r4, #75]
 155 00fe 84F84F10 		strb	r1, [r4, #79]
 156 0102 84F8AA20 		strb	r2, [r4, #170]
 157 0106 84F8AE10 		strb	r1, [r4, #174]
 158 010a 84F8B120 		strb	r2, [r4, #177]
 159 010e 84F8B520 		strb	r2, [r4, #181]
 160 0112 84F84330 		strb	r3, [r4, #67]
 161 0116 84F84630 		strb	r3, [r4, #70]
 162 011a 84F847C0 		strb	ip, [r4, #71]
 163 011e 84F84830 		strb	r3, [r4, #72]
 164 0122 84F84930 		strb	r3, [r4, #73]
 165 0126 84F84A30 		strb	r3, [r4, #74]
 166 012a 84F84C30 		strb	r3, [r4, #76]
 167 012e 84F84E30 		strb	r3, [r4, #78]
 168 0132 84F8A930 		strb	r3, [r4, #169]
 169 0136 84F8AB30 		strb	r3, [r4, #171]
 170 013a 84F8AD30 		strb	r3, [r4, #173]
 171 013e 84F84200 		strb	r0, [r4, #66]
 172 0142 84F84400 		strb	r0, [r4, #68]
 173 0146 84F8AF00 		strb	r0, [r4, #175]
 174 014a 84F84170 		strb	r7, [r4, #65]
ARM GAS  C:\Users\Andrew\AppData\Local\Temp\ccuGFDhg.s 			page 4


 175 014e 84F84D50 		strb	r5, [r4, #77]
 176 0152 84F8AC50 		strb	r5, [r4, #172]
 177 0156 84F8B070 		strb	r7, [r4, #176]
 178 015a 84F8B360 		strb	r6, [r4, #179]
 179 015e 84F8B4A0 		strb	r10, [r4, #180]
 180 0162 FFF7FEFF 		bl	dsy_system_init
 181 0166 2046     		mov	r0, r4
 182 0168 FFF7FEFF 		bl	dsy_sdram_init
 183 016c E01C     		adds	r0, r4, #3
 184 016e FFF7FEFF 		bl	dsy_qspi_init
 185 0172 04F1AF00 		add	r0, r4, #175
 186 0176 FFF7FEFF 		bl	dsy_gpio_init
 187 017a 04F1B300 		add	r0, r4, #179
 188 017e FFF7FEFF 		bl	dsy_gpio_init
 189 0182 04F12E02 		add	r2, r4, #46
 190 0186 04F13401 		add	r1, r4, #52
 191 018a 04F11100 		add	r0, r4, #17
 192 018e BDE8F047 		pop	{r4, r5, r6, r7, r8, r9, r10, lr}
 193 0192 FFF7FEBF 		b	dsy_audio_init
 195 0196 00BF     		.section	.text.startup.main,"ax",%progbits
 196              		.align	1
 197              		.p2align 2,,3
 198              		.global	main
 199              		.syntax unified
 200              		.thumb
 201              		.thumb_func
 202              		.fpu fpv5-d16
 204              	main:
 205              		@ Volatile: function does not return.
 206              		@ args = 0, pretend = 0, frame = 0
 207              		@ frame_needed = 0, uses_anonymous_args = 0
 208 0000 08B5     		push	{r3, lr}
 209 0002 1048     		ldr	r0, .L20
 210 0004 FFF7FEFF 		bl	daisy_seed_init
 211 0008 9FED0F0A 		vldr.32	s0, .L20+4
 212 000c 0F48     		ldr	r0, .L20+8
 213 000e FFF7FEFF 		bl	dsy_svf_init
 214 0012 9FED0F0A 		vldr.32	s0, .L20+12
 215 0016 0D48     		ldr	r0, .L20+8
 216 0018 FFF7FEFF 		bl	dsy_svf_set_fc
 217 001c 9FED0D0A 		vldr.32	s0, .L20+16
 218 0020 0A48     		ldr	r0, .L20+8
 219 0022 FFF7FEFF 		bl	dsy_svf_set_res
 220 0026 9FED0C0A 		vldr.32	s0, .L20+20
 221 002a 0848     		ldr	r0, .L20+8
 222 002c FFF7FEFF 		bl	dsy_svf_set_drive
 223 0030 0020     		movs	r0, #0
 224 0032 0A49     		ldr	r1, .L20+24
 225 0034 FFF7FEFF 		bl	dsy_audio_set_callback
 226 0038 FFF7FEFF 		bl	dsy_adc_start
 227 003c 0020     		movs	r0, #0
 228 003e FFF7FEFF 		bl	dsy_audio_start
 229              	.L18:
 230 0042 FEE7     		b	.L18
 231              	.L21:
 232              		.align	2
 233              	.L20:
ARM GAS  C:\Users\Andrew\AppData\Local\Temp\ccuGFDhg.s 			page 5


 234 0044 00000000 		.word	.LANCHOR1
 235 0048 008E3B47 		.word	1195085312
 236 004c 00000000 		.word	.LANCHOR0
 237 0050 00409C45 		.word	1167867904
 238 0054 9A99993E 		.word	1050253722
 239 0058 00000000 		.word	0
 240 005c 00000000 		.word	audioCallback
 242              		.global	seed_pins
 243              		.global	seed_ports
 244              		.section	.bss.filter,"aw",%nobits
 245              		.align	2
 246              		.set	.LANCHOR0,. + 0
 249              	filter:
 250 0000 00000000 		.space	68
 250      00000000 
 250      00000000 
 250      00000000 
 250      00000000 
 251              		.section	.bss.seed,"aw",%nobits
 252              		.align	2
 253              		.set	.LANCHOR1,. + 0
 256              	seed:
 257 0000 00000000 		.space	183
 257      00000000 
 257      00000000 
 257      00000000 
 257      00000000 
 258              		.section	.rodata.seed_pins,"a"
 259              		.align	2
 262              	seed_pins:
 263 0000 080C0B0A 		.ascii	"\010\014\013\012\011\010\007\014\012\013\004\005\010"
 263      0908070C 
 263      0A0B0405 
 263      08
 264 000d 09060700 		.ascii	"\011\006\007\000\001\003\001\007\006\001\005\005\004"
 264      01030107 
 264      06010505 
 264      04
 265 001a 000B0902 		.ascii	"\000\013\011\002\016\017"
 265      0E0F
 266              		.section	.rodata.seed_ports,"a"
 267              		.align	2
 270              	seed_ports:
 271 0000 00       		.byte	0
 272 0001 01       		.byte	1
 273 0002 02       		.byte	2
 274 0003 02       		.byte	2
 275 0004 02       		.byte	2
 276 0005 02       		.byte	2
 277 0006 03       		.byte	3
 278 0007 02       		.byte	2
 279 0008 06       		.byte	6
 280 0009 06       		.byte	6
 281 000a 01       		.byte	1
 282 000b 01       		.byte	1
 283 000c 01       		.byte	1
 284 000d 01       		.byte	1
ARM GAS  C:\Users\Andrew\AppData\Local\Temp\ccuGFDhg.s 			page 6


 285 000e 01       		.byte	1
 286 000f 01       		.byte	1
 287 0010 02       		.byte	2
 288 0011 00       		.byte	0
 289 0012 00       		.byte	0
 290 0013 01       		.byte	1
 291 0014 00       		.byte	0
 292 0015 00       		.byte	0
 293 0016 02       		.byte	2
 294 0017 02       		.byte	2
 295 0018 00       		.byte	0
 296 0019 00       		.byte	0
 297 001a 00       		.byte	0
 298 001b 03       		.byte	3
 299 001c 06       		.byte	6
 300 001d 00       		.byte	0
 301 001e 01       		.byte	1
 302 001f 01       		.byte	1
 303              		.ident	"GCC: (GNU Tools for Arm Embedded Processors 9-2019-q4-major) 9.2.1 20191025 (release) [ARM
ARM GAS  C:\Users\Andrew\AppData\Local\Temp\ccuGFDhg.s 			page 7

